

Microchip Technology PIC LITE Macro Assembler V2.00 build -1524193055 
                                                                                               Thu Feb 18 16:12:38 2021

Microchip Technology Omniscient Code Generator v2.00 (Free mode) build 20180527130849
     1  0000                     
      + 0000                     
     2                           ; Version 2.00
     3                           ; Generated 27/05/2018 GMT
     4                           
     5                           ; 
     6                           ; Copyright © 2018, Microchip Technology Inc. and its subsidiaries ("Microchip")
     7                           ; All rights reserved.
     8                           ; 
     9                           ; This software is developed by Microchip Technology Inc. and its subsidiaries ("Microch
                                 ip").
    10                           ; 
    11                           ; Redistribution and use in source and binary forms, with or without modification, are
    12                           ; permitted provided that the following conditions are met:
    13                           ; 
    14                           ;     1. Redistributions of source code must retain the above copyright notice, this lis
                                 t of
    15                           ;        conditions and the following disclaimer.
    16                           ; 
    17                           ;     2. Redistributions in binary form must reproduce the above copyright notice, this 
                                 list
    18                           ;        of conditions and the following disclaimer in the documentation and/or other
    19                           ;        materials provided with the distribution.
    20                           ; 
    21                           ;     3. Microchip's name may not be used to endorse or promote products derived from th
                                 is
    22                           ;        software without specific prior written permission.
    23                           ; 
    24                           ; THIS SOFTWARE IS PROVIDED BY MICROCHIP "AS IS" AND ANY EXPRESS OR IMPLIED WARRANTIES,

    25                           ; INCLUDING, BUT NOT LIMITED TO, THE IMPLIED WARRANTIES OF MERCHANTABILITY AND FITNESS F
                                 OR
    26                           ; PURPOSE ARE DISCLAIMED.  IN NO EVENT SHALL MICROCHIP BE LIABLE FOR ANY DIRECT, INDIREC
                                 T,
    27                           ; INCIDENTAL, SPECIAL, EXEMPLARY, OR CONSEQUENTIAL DAMAGES (INCLUDING BUT NOT LIMITED TO
                                 
    28                           ; PROCUREMENT OF SUBSTITUTE GOODS OR SERVICES; LOSS OF USE, DATA OR PROFITS; OR BUSINESS
                                 
    29                           ; INTERRUPTION) HOWSOEVER CAUSED AND ON ANY THEORY OF LIABILITY, WHETHER IN CONTRACT, ST
                                 RICT
    30                           ; LIABILITY, OR TORT (INCLUDING NEGLIGENCE OR OTHERWISE) ARISING IN ANY WAY OUT OF THE U
                                 SE OF
    31                           ; THIS SOFTWARE, EVEN IF ADVISED OF THE POSSIBILITY OF SUCH DAMAGE.
    32                           ; 
    33                           
    34                           
    35                           ; 
    36                           ; Code-generator required, PIC16F887 Definitions
    37                           ; 
    38  0004                     fsr0 equ 04h
    39  0004                     indf equ 00h
    40  0000                     indf0 equ 00h
    41  0000                     pc equ 02h
    42  0002                     pcl equ 02h
    43  0002                     pclath equ 0Ah
    44  000A                     status equ 03h
    45  0003                     
     2                           opt pagewidth 120
     3  0000                     byte0	macro	val
     4                           	(getbyte(val,0))
     5                           endm
     6  0000                     byte1	macro	val
     7                           	(getbyte(val,1))
     8                           endm
     9  0000                     byte2	macro	val
    10                           	(getbyte(val,2))
    11                           endm
    12  0000                     byte3	macro	val
    13                           	(getbyte(val,3))
    14                           endm
    15  0000                     byte4	macro	val
    16                           	(getbyte(val,4))
    17                           endm
    18  0000                     byte5	macro	val
    19                           	(getbyte(val,5))
    20                           endm
    21  0000                     byte6	macro	val
    22                           	(getbyte(val,6))
    23                           endm
    24  0000                     byte7	macro	val
    25                           	(getbyte(val,7))
    26                           endm
    27  0000                     getword	macro	val,pos
    28                           	(((val) >> (8 * pos)) and 0xffff)
    29                           endm
    30  0000                     word0	macro	val
    31                           	(getword(val,0))
    32                           endm
    33  0000                     word1	macro	val
    34                           	(getword(val,2))
    35                           endm
    36  0000                     word2	macro	val
    37                           	(getword(val,4))
    38                           endm
    39  0000                     word3	macro	val
    40                           	(getword(val,6))
    41                           endm
    42  0000                     gettword	macro	val,pos
    43                           	(((val) >> (8 * pos)) and 0xffffff)
    44                           endm
    45  0000                     tword0	macro	val
    46                           	(gettword(val,0))
    47                           endm
    48  0000                     tword1	macro	val
    49                           	(gettword(val,3))
    50                           endm
    51  0000                     tword2	macro	val
    52                           	(gettword(val,6))
    53                           endm
    54  0000                     getdword	macro	val,pos
    55                           	(((val) >> (8 * pos)) and 0xffffffff)
    56                           endm
    57  0000                     dword0	macro	val
    58                           	(getdword(val,0))
    59                           endm
    60  0000                     dword1	macro	val
    61                           	(getdword(val,4))
    62                           endm
    63  0000                     clrc	macro
    64                           	bcf	3,0
    65                           	endm
    66  0000                     clrz	macro
    67                           	bcf	3,2
    68                           	endm
    69  0000                     setc	macro
    70                           	bsf	3,0
    71                           	endm
    72  0000                     setz	macro
    73                           	bsf	3,2
    74                           	endm
    75  0000                     skipc	macro
    76                           	btfss	3,0
    77                           	endm
    78  0000                     skipz	macro
    79                           	btfss	3,2
    80                           	endm
    81  0000                     skipnc	macro
    82                           	btfsc	3,0
    83                           	endm
    84  0000                     skipnz	macro
    85                           	btfsc	3,2
    86                           	endm
    87  0000                     # 54 "C:\Program Files (x86)\Microchip\xc8\v2.00\pic\include\pic16f887.h"
    88                           INDF equ 00h ;# 
    89  0000                     # 61 "C:\Program Files (x86)\Microchip\xc8\v2.00\pic\include\pic16f887.h"
    90                           TMR0 equ 01h ;# 
    91  0001                     # 68 "C:\Program Files (x86)\Microchip\xc8\v2.00\pic\include\pic16f887.h"
    92                           PCL equ 02h ;# 
    93  0002                     # 75 "C:\Program Files (x86)\Microchip\xc8\v2.00\pic\include\pic16f887.h"
    94                           STATUS equ 03h ;# 
    95  0003                     # 161 "C:\Program Files (x86)\Microchip\xc8\v2.00\pic\include\pic16f887.h"
    96                           FSR equ 04h ;# 
    97  0004                     # 168 "C:\Program Files (x86)\Microchip\xc8\v2.00\pic\include\pic16f887.h"
    98                           PORTA equ 05h ;# 
    99  0005                     # 230 "C:\Program Files (x86)\Microchip\xc8\v2.00\pic\include\pic16f887.h"
   100                           PORTB equ 06h ;# 
   101  0006                     # 292 "C:\Program Files (x86)\Microchip\xc8\v2.00\pic\include\pic16f887.h"
   102                           PORTC equ 07h ;# 
   103  0007                     # 354 "C:\Program Files (x86)\Microchip\xc8\v2.00\pic\include\pic16f887.h"
   104                           PORTD equ 08h ;# 
   105  0008                     # 416 "C:\Program Files (x86)\Microchip\xc8\v2.00\pic\include\pic16f887.h"
   106                           PORTE equ 09h ;# 
   107  0009                     # 454 "C:\Program Files (x86)\Microchip\xc8\v2.00\pic\include\pic16f887.h"
   108                           PCLATH equ 0Ah ;# 
   109  000A                     # 461 "C:\Program Files (x86)\Microchip\xc8\v2.00\pic\include\pic16f887.h"
   110                           INTCON equ 0Bh ;# 
   111  000B                     # 539 "C:\Program Files (x86)\Microchip\xc8\v2.00\pic\include\pic16f887.h"
   112                           PIR1 equ 0Ch ;# 
   113  000C                     # 595 "C:\Program Files (x86)\Microchip\xc8\v2.00\pic\include\pic16f887.h"
   114                           PIR2 equ 0Dh ;# 
   115  000D                     # 652 "C:\Program Files (x86)\Microchip\xc8\v2.00\pic\include\pic16f887.h"
   116                           TMR1 equ 0Eh ;# 
   117  000E                     # 659 "C:\Program Files (x86)\Microchip\xc8\v2.00\pic\include\pic16f887.h"
   118                           TMR1L equ 0Eh ;# 
   119  000E                     # 666 "C:\Program Files (x86)\Microchip\xc8\v2.00\pic\include\pic16f887.h"
   120                           TMR1H equ 0Fh ;# 
   121  000F                     # 673 "C:\Program Files (x86)\Microchip\xc8\v2.00\pic\include\pic16f887.h"
   122                           T1CON equ 010h ;# 
   123  0010                     # 767 "C:\Program Files (x86)\Microchip\xc8\v2.00\pic\include\pic16f887.h"
   124                           TMR2 equ 011h ;# 
   125  0011                     # 774 "C:\Program Files (x86)\Microchip\xc8\v2.00\pic\include\pic16f887.h"
   126                           T2CON equ 012h ;# 
   127  0012                     # 845 "C:\Program Files (x86)\Microchip\xc8\v2.00\pic\include\pic16f887.h"
   128                           SSPBUF equ 013h ;# 
   129  0013                     # 852 "C:\Program Files (x86)\Microchip\xc8\v2.00\pic\include\pic16f887.h"
   130                           SSPCON equ 014h ;# 
   131  0014                     # 922 "C:\Program Files (x86)\Microchip\xc8\v2.00\pic\include\pic16f887.h"
   132                           CCPR1 equ 015h ;# 
   133  0015                     # 929 "C:\Program Files (x86)\Microchip\xc8\v2.00\pic\include\pic16f887.h"
   134                           CCPR1L equ 015h ;# 
   135  0015                     # 936 "C:\Program Files (x86)\Microchip\xc8\v2.00\pic\include\pic16f887.h"
   136                           CCPR1H equ 016h ;# 
   137  0016                     # 943 "C:\Program Files (x86)\Microchip\xc8\v2.00\pic\include\pic16f887.h"
   138                           CCP1CON equ 017h ;# 
   139  0017                     # 1040 "C:\Program Files (x86)\Microchip\xc8\v2.00\pic\include\pic16f887.h"
   140                           RCSTA equ 018h ;# 
   141  0018                     # 1135 "C:\Program Files (x86)\Microchip\xc8\v2.00\pic\include\pic16f887.h"
   142                           TXREG equ 019h ;# 
   143  0019                     # 1142 "C:\Program Files (x86)\Microchip\xc8\v2.00\pic\include\pic16f887.h"
   144                           RCREG equ 01Ah ;# 
   145  001A                     # 1149 "C:\Program Files (x86)\Microchip\xc8\v2.00\pic\include\pic16f887.h"
   146                           CCPR2 equ 01Bh ;# 
   147  001B                     # 1156 "C:\Program Files (x86)\Microchip\xc8\v2.00\pic\include\pic16f887.h"
   148                           CCPR2L equ 01Bh ;# 
   149  001B                     # 1163 "C:\Program Files (x86)\Microchip\xc8\v2.00\pic\include\pic16f887.h"
   150                           CCPR2H equ 01Ch ;# 
   151  001C                     # 1170 "C:\Program Files (x86)\Microchip\xc8\v2.00\pic\include\pic16f887.h"
   152                           CCP2CON equ 01Dh ;# 
   153  001D                     # 1240 "C:\Program Files (x86)\Microchip\xc8\v2.00\pic\include\pic16f887.h"
   154                           ADRESH equ 01Eh ;# 
   155  001E                     # 1247 "C:\Program Files (x86)\Microchip\xc8\v2.00\pic\include\pic16f887.h"
   156                           ADCON0 equ 01Fh ;# 
   157  001F                     # 1348 "C:\Program Files (x86)\Microchip\xc8\v2.00\pic\include\pic16f887.h"
   158                           OPTION_REG equ 081h ;# 
   159  0081                     # 1418 "C:\Program Files (x86)\Microchip\xc8\v2.00\pic\include\pic16f887.h"
   160                           TRISA equ 085h ;# 
   161  0085                     # 1480 "C:\Program Files (x86)\Microchip\xc8\v2.00\pic\include\pic16f887.h"
   162                           TRISB equ 086h ;# 
   163  0086                     # 1542 "C:\Program Files (x86)\Microchip\xc8\v2.00\pic\include\pic16f887.h"
   164                           TRISC equ 087h ;# 
   165  0087                     # 1604 "C:\Program Files (x86)\Microchip\xc8\v2.00\pic\include\pic16f887.h"
   166                           TRISD equ 088h ;# 
   167  0088                     # 1666 "C:\Program Files (x86)\Microchip\xc8\v2.00\pic\include\pic16f887.h"
   168                           TRISE equ 089h ;# 
   169  0089                     # 1704 "C:\Program Files (x86)\Microchip\xc8\v2.00\pic\include\pic16f887.h"
   170                           PIE1 equ 08Ch ;# 
   171  008C                     # 1760 "C:\Program Files (x86)\Microchip\xc8\v2.00\pic\include\pic16f887.h"
   172                           PIE2 equ 08Dh ;# 
   173  008D                     # 1817 "C:\Program Files (x86)\Microchip\xc8\v2.00\pic\include\pic16f887.h"
   174                           PCON equ 08Eh ;# 
   175  008E                     # 1864 "C:\Program Files (x86)\Microchip\xc8\v2.00\pic\include\pic16f887.h"
   176                           OSCCON equ 08Fh ;# 
   177  008F                     # 1929 "C:\Program Files (x86)\Microchip\xc8\v2.00\pic\include\pic16f887.h"
   178                           OSCTUNE equ 090h ;# 
   179  0090                     # 1981 "C:\Program Files (x86)\Microchip\xc8\v2.00\pic\include\pic16f887.h"
   180                           SSPCON2 equ 091h ;# 
   181  0091                     # 2043 "C:\Program Files (x86)\Microchip\xc8\v2.00\pic\include\pic16f887.h"
   182                           PR2 equ 092h ;# 
   183  0092                     # 2050 "C:\Program Files (x86)\Microchip\xc8\v2.00\pic\include\pic16f887.h"
   184                           SSPADD equ 093h ;# 
   185  0093                     # 2057 "C:\Program Files (x86)\Microchip\xc8\v2.00\pic\include\pic16f887.h"
   186                           SSPMSK equ 093h ;# 
   187  0093                     # 2062 "C:\Program Files (x86)\Microchip\xc8\v2.00\pic\include\pic16f887.h"
   188                           MSK equ 093h ;# 
   189  0093                     # 2179 "C:\Program Files (x86)\Microchip\xc8\v2.00\pic\include\pic16f887.h"
   190                           SSPSTAT equ 094h ;# 
   191  0094                     # 2348 "C:\Program Files (x86)\Microchip\xc8\v2.00\pic\include\pic16f887.h"
   192                           WPUB equ 095h ;# 
   193  0095                     # 2418 "C:\Program Files (x86)\Microchip\xc8\v2.00\pic\include\pic16f887.h"
   194                           IOCB equ 096h ;# 
   195  0096                     # 2488 "C:\Program Files (x86)\Microchip\xc8\v2.00\pic\include\pic16f887.h"
   196                           VRCON equ 097h ;# 
   197  0097                     # 2558 "C:\Program Files (x86)\Microchip\xc8\v2.00\pic\include\pic16f887.h"
   198                           TXSTA equ 098h ;# 
   199  0098                     # 2644 "C:\Program Files (x86)\Microchip\xc8\v2.00\pic\include\pic16f887.h"
   200                           SPBRG equ 099h ;# 
   201  0099                     # 2706 "C:\Program Files (x86)\Microchip\xc8\v2.00\pic\include\pic16f887.h"
   202                           SPBRGH equ 09Ah ;# 
   203  009A                     # 2776 "C:\Program Files (x86)\Microchip\xc8\v2.00\pic\include\pic16f887.h"
   204                           PWM1CON equ 09Bh ;# 
   205  009B                     # 2846 "C:\Program Files (x86)\Microchip\xc8\v2.00\pic\include\pic16f887.h"
   206                           ECCPAS equ 09Ch ;# 
   207  009C                     # 2928 "C:\Program Files (x86)\Microchip\xc8\v2.00\pic\include\pic16f887.h"
   208                           PSTRCON equ 09Dh ;# 
   209  009D                     # 2972 "C:\Program Files (x86)\Microchip\xc8\v2.00\pic\include\pic16f887.h"
   210                           ADRESL equ 09Eh ;# 
   211  009E                     # 2979 "C:\Program Files (x86)\Microchip\xc8\v2.00\pic\include\pic16f887.h"
   212                           ADCON1 equ 09Fh ;# 
   213  009F                     # 3013 "C:\Program Files (x86)\Microchip\xc8\v2.00\pic\include\pic16f887.h"
   214                           WDTCON equ 0105h ;# 
   215  0105                     # 3066 "C:\Program Files (x86)\Microchip\xc8\v2.00\pic\include\pic16f887.h"
   216                           CM1CON0 equ 0107h ;# 
   217  0107                     # 3131 "C:\Program Files (x86)\Microchip\xc8\v2.00\pic\include\pic16f887.h"
   218                           CM2CON0 equ 0108h ;# 
   219  0108                     # 3196 "C:\Program Files (x86)\Microchip\xc8\v2.00\pic\include\pic16f887.h"
   220                           CM2CON1 equ 0109h ;# 
   221  0109                     # 3247 "C:\Program Files (x86)\Microchip\xc8\v2.00\pic\include\pic16f887.h"
   222                           EEDATA equ 010Ch ;# 
   223  010C                     # 3252 "C:\Program Files (x86)\Microchip\xc8\v2.00\pic\include\pic16f887.h"
   224                           EEDAT equ 010Ch ;# 
   225  010C                     # 3259 "C:\Program Files (x86)\Microchip\xc8\v2.00\pic\include\pic16f887.h"
   226                           EEADR equ 010Dh ;# 
   227  010D                     # 3266 "C:\Program Files (x86)\Microchip\xc8\v2.00\pic\include\pic16f887.h"
   228                           EEDATH equ 010Eh ;# 
   229  010E                     # 3273 "C:\Program Files (x86)\Microchip\xc8\v2.00\pic\include\pic16f887.h"
   230                           EEADRH equ 010Fh ;# 
   231  010F                     # 3280 "C:\Program Files (x86)\Microchip\xc8\v2.00\pic\include\pic16f887.h"
   232                           SRCON equ 0185h ;# 
   233  0185                     # 3337 "C:\Program Files (x86)\Microchip\xc8\v2.00\pic\include\pic16f887.h"
   234                           BAUDCTL equ 0187h ;# 
   235  0187                     # 3389 "C:\Program Files (x86)\Microchip\xc8\v2.00\pic\include\pic16f887.h"
   236                           ANSEL equ 0188h ;# 
   237  0188                     # 3451 "C:\Program Files (x86)\Microchip\xc8\v2.00\pic\include\pic16f887.h"
   238                           ANSELH equ 0189h ;# 
   239  0189                     # 3501 "C:\Program Files (x86)\Microchip\xc8\v2.00\pic\include\pic16f887.h"
   240                           EECON1 equ 018Ch ;# 
   241  018C                     # 3546 "C:\Program Files (x86)\Microchip\xc8\v2.00\pic\include\pic16f887.h"
   242                           EECON2 equ 018Dh ;# 
   243  018D                     # 54 "C:\Program Files (x86)\Microchip\xc8\v2.00\pic\include\pic16f887.h"
   244                           INDF equ 00h ;# 
   245  0000                     # 61 "C:\Program Files (x86)\Microchip\xc8\v2.00\pic\include\pic16f887.h"
   246                           TMR0 equ 01h ;# 
   247  0001                     # 68 "C:\Program Files (x86)\Microchip\xc8\v2.00\pic\include\pic16f887.h"
   248                           PCL equ 02h ;# 
   249  0002                     # 75 "C:\Program Files (x86)\Microchip\xc8\v2.00\pic\include\pic16f887.h"
   250                           STATUS equ 03h ;# 
   251  0003                     # 161 "C:\Program Files (x86)\Microchip\xc8\v2.00\pic\include\pic16f887.h"
   252                           FSR equ 04h ;# 
   253  0004                     # 168 "C:\Program Files (x86)\Microchip\xc8\v2.00\pic\include\pic16f887.h"
   254                           PORTA equ 05h ;# 
   255  0005                     # 230 "C:\Program Files (x86)\Microchip\xc8\v2.00\pic\include\pic16f887.h"
   256                           PORTB equ 06h ;# 
   257  0006                     # 292 "C:\Program Files (x86)\Microchip\xc8\v2.00\pic\include\pic16f887.h"
   258                           PORTC equ 07h ;# 
   259  0007                     # 354 "C:\Program Files (x86)\Microchip\xc8\v2.00\pic\include\pic16f887.h"
   260                           PORTD equ 08h ;# 
   261  0008                     # 416 "C:\Program Files (x86)\Microchip\xc8\v2.00\pic\include\pic16f887.h"
   262                           PORTE equ 09h ;# 
   263  0009                     # 454 "C:\Program Files (x86)\Microchip\xc8\v2.00\pic\include\pic16f887.h"
   264                           PCLATH equ 0Ah ;# 
   265  000A                     # 461 "C:\Program Files (x86)\Microchip\xc8\v2.00\pic\include\pic16f887.h"
   266                           INTCON equ 0Bh ;# 
   267  000B                     # 539 "C:\Program Files (x86)\Microchip\xc8\v2.00\pic\include\pic16f887.h"
   268                           PIR1 equ 0Ch ;# 
   269  000C                     # 595 "C:\Program Files (x86)\Microchip\xc8\v2.00\pic\include\pic16f887.h"
   270                           PIR2 equ 0Dh ;# 
   271  000D                     # 652 "C:\Program Files (x86)\Microchip\xc8\v2.00\pic\include\pic16f887.h"
   272                           TMR1 equ 0Eh ;# 
   273  000E                     # 659 "C:\Program Files (x86)\Microchip\xc8\v2.00\pic\include\pic16f887.h"
   274                           TMR1L equ 0Eh ;# 
   275  000E                     # 666 "C:\Program Files (x86)\Microchip\xc8\v2.00\pic\include\pic16f887.h"
   276                           TMR1H equ 0Fh ;# 
   277  000F                     # 673 "C:\Program Files (x86)\Microchip\xc8\v2.00\pic\include\pic16f887.h"
   278                           T1CON equ 010h ;# 
   279  0010                     # 767 "C:\Program Files (x86)\Microchip\xc8\v2.00\pic\include\pic16f887.h"
   280                           TMR2 equ 011h ;# 
   281  0011                     # 774 "C:\Program Files (x86)\Microchip\xc8\v2.00\pic\include\pic16f887.h"
   282                           T2CON equ 012h ;# 
   283  0012                     # 845 "C:\Program Files (x86)\Microchip\xc8\v2.00\pic\include\pic16f887.h"
   284                           SSPBUF equ 013h ;# 
   285  0013                     # 852 "C:\Program Files (x86)\Microchip\xc8\v2.00\pic\include\pic16f887.h"
   286                           SSPCON equ 014h ;# 
   287  0014                     # 922 "C:\Program Files (x86)\Microchip\xc8\v2.00\pic\include\pic16f887.h"
   288                           CCPR1 equ 015h ;# 
   289  0015                     # 929 "C:\Program Files (x86)\Microchip\xc8\v2.00\pic\include\pic16f887.h"
   290                           CCPR1L equ 015h ;# 
   291  0015                     # 936 "C:\Program Files (x86)\Microchip\xc8\v2.00\pic\include\pic16f887.h"
   292                           CCPR1H equ 016h ;# 
   293  0016                     # 943 "C:\Program Files (x86)\Microchip\xc8\v2.00\pic\include\pic16f887.h"
   294                           CCP1CON equ 017h ;# 
   295  0017                     # 1040 "C:\Program Files (x86)\Microchip\xc8\v2.00\pic\include\pic16f887.h"
   296                           RCSTA equ 018h ;# 
   297  0018                     # 1135 "C:\Program Files (x86)\Microchip\xc8\v2.00\pic\include\pic16f887.h"
   298                           TXREG equ 019h ;# 
   299  0019                     # 1142 "C:\Program Files (x86)\Microchip\xc8\v2.00\pic\include\pic16f887.h"
   300                           RCREG equ 01Ah ;# 
   301  001A                     # 1149 "C:\Program Files (x86)\Microchip\xc8\v2.00\pic\include\pic16f887.h"
   302                           CCPR2 equ 01Bh ;# 
   303  001B                     # 1156 "C:\Program Files (x86)\Microchip\xc8\v2.00\pic\include\pic16f887.h"
   304                           CCPR2L equ 01Bh ;# 
   305  001B                     # 1163 "C:\Program Files (x86)\Microchip\xc8\v2.00\pic\include\pic16f887.h"
   306                           CCPR2H equ 01Ch ;# 
   307  001C                     # 1170 "C:\Program Files (x86)\Microchip\xc8\v2.00\pic\include\pic16f887.h"
   308                           CCP2CON equ 01Dh ;# 
   309  001D                     # 1240 "C:\Program Files (x86)\Microchip\xc8\v2.00\pic\include\pic16f887.h"
   310                           ADRESH equ 01Eh ;# 
   311  001E                     # 1247 "C:\Program Files (x86)\Microchip\xc8\v2.00\pic\include\pic16f887.h"
   312                           ADCON0 equ 01Fh ;# 
   313  001F                     # 1348 "C:\Program Files (x86)\Microchip\xc8\v2.00\pic\include\pic16f887.h"
   314                           OPTION_REG equ 081h ;# 
   315  0081                     # 1418 "C:\Program Files (x86)\Microchip\xc8\v2.00\pic\include\pic16f887.h"
   316                           TRISA equ 085h ;# 
   317  0085                     # 1480 "C:\Program Files (x86)\Microchip\xc8\v2.00\pic\include\pic16f887.h"
   318                           TRISB equ 086h ;# 
   319  0086                     # 1542 "C:\Program Files (x86)\Microchip\xc8\v2.00\pic\include\pic16f887.h"
   320                           TRISC equ 087h ;# 
   321  0087                     # 1604 "C:\Program Files (x86)\Microchip\xc8\v2.00\pic\include\pic16f887.h"
   322                           TRISD equ 088h ;# 
   323  0088                     # 1666 "C:\Program Files (x86)\Microchip\xc8\v2.00\pic\include\pic16f887.h"
   324                           TRISE equ 089h ;# 
   325  0089                     # 1704 "C:\Program Files (x86)\Microchip\xc8\v2.00\pic\include\pic16f887.h"
   326                           PIE1 equ 08Ch ;# 
   327  008C                     # 1760 "C:\Program Files (x86)\Microchip\xc8\v2.00\pic\include\pic16f887.h"
   328                           PIE2 equ 08Dh ;# 
   329  008D                     # 1817 "C:\Program Files (x86)\Microchip\xc8\v2.00\pic\include\pic16f887.h"
   330                           PCON equ 08Eh ;# 
   331  008E                     # 1864 "C:\Program Files (x86)\Microchip\xc8\v2.00\pic\include\pic16f887.h"
   332                           OSCCON equ 08Fh ;# 
   333  008F                     # 1929 "C:\Program Files (x86)\Microchip\xc8\v2.00\pic\include\pic16f887.h"
   334                           OSCTUNE equ 090h ;# 
   335  0090                     # 1981 "C:\Program Files (x86)\Microchip\xc8\v2.00\pic\include\pic16f887.h"
   336                           SSPCON2 equ 091h ;# 
   337  0091                     # 2043 "C:\Program Files (x86)\Microchip\xc8\v2.00\pic\include\pic16f887.h"
   338                           PR2 equ 092h ;# 
   339  0092                     # 2050 "C:\Program Files (x86)\Microchip\xc8\v2.00\pic\include\pic16f887.h"
   340                           SSPADD equ 093h ;# 
   341  0093                     # 2057 "C:\Program Files (x86)\Microchip\xc8\v2.00\pic\include\pic16f887.h"
   342                           SSPMSK equ 093h ;# 
   343  0093                     # 2062 "C:\Program Files (x86)\Microchip\xc8\v2.00\pic\include\pic16f887.h"
   344                           MSK equ 093h ;# 
   345  0093                     # 2179 "C:\Program Files (x86)\Microchip\xc8\v2.00\pic\include\pic16f887.h"
   346                           SSPSTAT equ 094h ;# 
   347  0094                     # 2348 "C:\Program Files (x86)\Microchip\xc8\v2.00\pic\include\pic16f887.h"
   348                           WPUB equ 095h ;# 
   349  0095                     # 2418 "C:\Program Files (x86)\Microchip\xc8\v2.00\pic\include\pic16f887.h"
   350                           IOCB equ 096h ;# 
   351  0096                     # 2488 "C:\Program Files (x86)\Microchip\xc8\v2.00\pic\include\pic16f887.h"
   352                           VRCON equ 097h ;# 
   353  0097                     # 2558 "C:\Program Files (x86)\Microchip\xc8\v2.00\pic\include\pic16f887.h"
   354                           TXSTA equ 098h ;# 
   355  0098                     # 2644 "C:\Program Files (x86)\Microchip\xc8\v2.00\pic\include\pic16f887.h"
   356                           SPBRG equ 099h ;# 
   357  0099                     # 2706 "C:\Program Files (x86)\Microchip\xc8\v2.00\pic\include\pic16f887.h"
   358                           SPBRGH equ 09Ah ;# 
   359  009A                     # 2776 "C:\Program Files (x86)\Microchip\xc8\v2.00\pic\include\pic16f887.h"
   360                           PWM1CON equ 09Bh ;# 
   361  009B                     # 2846 "C:\Program Files (x86)\Microchip\xc8\v2.00\pic\include\pic16f887.h"
   362                           ECCPAS equ 09Ch ;# 
   363  009C                     # 2928 "C:\Program Files (x86)\Microchip\xc8\v2.00\pic\include\pic16f887.h"
   364                           PSTRCON equ 09Dh ;# 
   365  009D                     # 2972 "C:\Program Files (x86)\Microchip\xc8\v2.00\pic\include\pic16f887.h"
   366                           ADRESL equ 09Eh ;# 
   367  009E                     # 2979 "C:\Program Files (x86)\Microchip\xc8\v2.00\pic\include\pic16f887.h"
   368                           ADCON1 equ 09Fh ;# 
   369  009F                     # 3013 "C:\Program Files (x86)\Microchip\xc8\v2.00\pic\include\pic16f887.h"
   370                           WDTCON equ 0105h ;# 
   371  0105                     # 3066 "C:\Program Files (x86)\Microchip\xc8\v2.00\pic\include\pic16f887.h"
   372                           CM1CON0 equ 0107h ;# 
   373  0107                     # 3131 "C:\Program Files (x86)\Microchip\xc8\v2.00\pic\include\pic16f887.h"
   374                           CM2CON0 equ 0108h ;# 
   375  0108                     # 3196 "C:\Program Files (x86)\Microchip\xc8\v2.00\pic\include\pic16f887.h"
   376                           CM2CON1 equ 0109h ;# 
   377  0109                     # 3247 "C:\Program Files (x86)\Microchip\xc8\v2.00\pic\include\pic16f887.h"
   378                           EEDATA equ 010Ch ;# 
   379  010C                     # 3252 "C:\Program Files (x86)\Microchip\xc8\v2.00\pic\include\pic16f887.h"
   380                           EEDAT equ 010Ch ;# 
   381  010C                     # 3259 "C:\Program Files (x86)\Microchip\xc8\v2.00\pic\include\pic16f887.h"
   382                           EEADR equ 010Dh ;# 
   383  010D                     # 3266 "C:\Program Files (x86)\Microchip\xc8\v2.00\pic\include\pic16f887.h"
   384                           EEDATH equ 010Eh ;# 
   385  010E                     # 3273 "C:\Program Files (x86)\Microchip\xc8\v2.00\pic\include\pic16f887.h"
   386                           EEADRH equ 010Fh ;# 
   387  010F                     # 3280 "C:\Program Files (x86)\Microchip\xc8\v2.00\pic\include\pic16f887.h"
   388                           SRCON equ 0185h ;# 
   389  0185                     # 3337 "C:\Program Files (x86)\Microchip\xc8\v2.00\pic\include\pic16f887.h"
   390                           BAUDCTL equ 0187h ;# 
   391  0187                     # 3389 "C:\Program Files (x86)\Microchip\xc8\v2.00\pic\include\pic16f887.h"
   392                           ANSEL equ 0188h ;# 
   393  0188                     # 3451 "C:\Program Files (x86)\Microchip\xc8\v2.00\pic\include\pic16f887.h"
   394                           ANSELH equ 0189h ;# 
   395  0189                     # 3501 "C:\Program Files (x86)\Microchip\xc8\v2.00\pic\include\pic16f887.h"
   396                           EECON1 equ 018Ch ;# 
   397  018C                     # 3546 "C:\Program Files (x86)\Microchip\xc8\v2.00\pic\include\pic16f887.h"
   398                           EECON2 equ 018Dh ;# 
   399  018D                     # 54 "C:\Program Files (x86)\Microchip\xc8\v2.00\pic\include\pic16f887.h"
   400                           INDF equ 00h ;# 
   401  0000                     # 61 "C:\Program Files (x86)\Microchip\xc8\v2.00\pic\include\pic16f887.h"
   402                           TMR0 equ 01h ;# 
   403  0001                     # 68 "C:\Program Files (x86)\Microchip\xc8\v2.00\pic\include\pic16f887.h"
   404                           PCL equ 02h ;# 
   405  0002                     # 75 "C:\Program Files (x86)\Microchip\xc8\v2.00\pic\include\pic16f887.h"
   406                           STATUS equ 03h ;# 
   407  0003                     # 161 "C:\Program Files (x86)\Microchip\xc8\v2.00\pic\include\pic16f887.h"
   408                           FSR equ 04h ;# 
   409  0004                     # 168 "C:\Program Files (x86)\Microchip\xc8\v2.00\pic\include\pic16f887.h"
   410                           PORTA equ 05h ;# 
   411  0005                     # 230 "C:\Program Files (x86)\Microchip\xc8\v2.00\pic\include\pic16f887.h"
   412                           PORTB equ 06h ;# 
   413  0006                     # 292 "C:\Program Files (x86)\Microchip\xc8\v2.00\pic\include\pic16f887.h"
   414                           PORTC equ 07h ;# 
   415  0007                     # 354 "C:\Program Files (x86)\Microchip\xc8\v2.00\pic\include\pic16f887.h"
   416                           PORTD equ 08h ;# 
   417  0008                     # 416 "C:\Program Files (x86)\Microchip\xc8\v2.00\pic\include\pic16f887.h"
   418                           PORTE equ 09h ;# 
   419  0009                     # 454 "C:\Program Files (x86)\Microchip\xc8\v2.00\pic\include\pic16f887.h"
   420                           PCLATH equ 0Ah ;# 
   421  000A                     # 461 "C:\Program Files (x86)\Microchip\xc8\v2.00\pic\include\pic16f887.h"
   422                           INTCON equ 0Bh ;# 
   423  000B                     # 539 "C:\Program Files (x86)\Microchip\xc8\v2.00\pic\include\pic16f887.h"
   424                           PIR1 equ 0Ch ;# 
   425  000C                     # 595 "C:\Program Files (x86)\Microchip\xc8\v2.00\pic\include\pic16f887.h"
   426                           PIR2 equ 0Dh ;# 
   427  000D                     # 652 "C:\Program Files (x86)\Microchip\xc8\v2.00\pic\include\pic16f887.h"
   428                           TMR1 equ 0Eh ;# 
   429  000E                     # 659 "C:\Program Files (x86)\Microchip\xc8\v2.00\pic\include\pic16f887.h"
   430                           TMR1L equ 0Eh ;# 
   431  000E                     # 666 "C:\Program Files (x86)\Microchip\xc8\v2.00\pic\include\pic16f887.h"
   432                           TMR1H equ 0Fh ;# 
   433  000F                     # 673 "C:\Program Files (x86)\Microchip\xc8\v2.00\pic\include\pic16f887.h"
   434                           T1CON equ 010h ;# 
   435  0010                     # 767 "C:\Program Files (x86)\Microchip\xc8\v2.00\pic\include\pic16f887.h"
   436                           TMR2 equ 011h ;# 
   437  0011                     # 774 "C:\Program Files (x86)\Microchip\xc8\v2.00\pic\include\pic16f887.h"
   438                           T2CON equ 012h ;# 
   439  0012                     # 845 "C:\Program Files (x86)\Microchip\xc8\v2.00\pic\include\pic16f887.h"
   440                           SSPBUF equ 013h ;# 
   441  0013                     # 852 "C:\Program Files (x86)\Microchip\xc8\v2.00\pic\include\pic16f887.h"
   442                           SSPCON equ 014h ;# 
   443  0014                     # 922 "C:\Program Files (x86)\Microchip\xc8\v2.00\pic\include\pic16f887.h"
   444                           CCPR1 equ 015h ;# 
   445  0015                     # 929 "C:\Program Files (x86)\Microchip\xc8\v2.00\pic\include\pic16f887.h"
   446                           CCPR1L equ 015h ;# 
   447  0015                     # 936 "C:\Program Files (x86)\Microchip\xc8\v2.00\pic\include\pic16f887.h"
   448                           CCPR1H equ 016h ;# 
   449  0016                     # 943 "C:\Program Files (x86)\Microchip\xc8\v2.00\pic\include\pic16f887.h"
   450                           CCP1CON equ 017h ;# 
   451  0017                     # 1040 "C:\Program Files (x86)\Microchip\xc8\v2.00\pic\include\pic16f887.h"
   452                           RCSTA equ 018h ;# 
   453  0018                     # 1135 "C:\Program Files (x86)\Microchip\xc8\v2.00\pic\include\pic16f887.h"
   454                           TXREG equ 019h ;# 
   455  0019                     # 1142 "C:\Program Files (x86)\Microchip\xc8\v2.00\pic\include\pic16f887.h"
   456                           RCREG equ 01Ah ;# 
   457  001A                     # 1149 "C:\Program Files (x86)\Microchip\xc8\v2.00\pic\include\pic16f887.h"
   458                           CCPR2 equ 01Bh ;# 
   459  001B                     # 1156 "C:\Program Files (x86)\Microchip\xc8\v2.00\pic\include\pic16f887.h"
   460                           CCPR2L equ 01Bh ;# 
   461  001B                     # 1163 "C:\Program Files (x86)\Microchip\xc8\v2.00\pic\include\pic16f887.h"
   462                           CCPR2H equ 01Ch ;# 
   463  001C                     # 1170 "C:\Program Files (x86)\Microchip\xc8\v2.00\pic\include\pic16f887.h"
   464                           CCP2CON equ 01Dh ;# 
   465  001D                     # 1240 "C:\Program Files (x86)\Microchip\xc8\v2.00\pic\include\pic16f887.h"
   466                           ADRESH equ 01Eh ;# 
   467  001E                     # 1247 "C:\Program Files (x86)\Microchip\xc8\v2.00\pic\include\pic16f887.h"
   468                           ADCON0 equ 01Fh ;# 
   469  001F                     # 1348 "C:\Program Files (x86)\Microchip\xc8\v2.00\pic\include\pic16f887.h"
   470                           OPTION_REG equ 081h ;# 
   471  0081                     # 1418 "C:\Program Files (x86)\Microchip\xc8\v2.00\pic\include\pic16f887.h"
   472                           TRISA equ 085h ;# 
   473  0085                     # 1480 "C:\Program Files (x86)\Microchip\xc8\v2.00\pic\include\pic16f887.h"
   474                           TRISB equ 086h ;# 
   475  0086                     # 1542 "C:\Program Files (x86)\Microchip\xc8\v2.00\pic\include\pic16f887.h"
   476                           TRISC equ 087h ;# 
   477  0087                     # 1604 "C:\Program Files (x86)\Microchip\xc8\v2.00\pic\include\pic16f887.h"
   478                           TRISD equ 088h ;# 
   479  0088                     # 1666 "C:\Program Files (x86)\Microchip\xc8\v2.00\pic\include\pic16f887.h"
   480                           TRISE equ 089h ;# 
   481  0089                     # 1704 "C:\Program Files (x86)\Microchip\xc8\v2.00\pic\include\pic16f887.h"
   482                           PIE1 equ 08Ch ;# 
   483  008C                     # 1760 "C:\Program Files (x86)\Microchip\xc8\v2.00\pic\include\pic16f887.h"
   484                           PIE2 equ 08Dh ;# 
   485  008D                     # 1817 "C:\Program Files (x86)\Microchip\xc8\v2.00\pic\include\pic16f887.h"
   486                           PCON equ 08Eh ;# 
   487  008E                     # 1864 "C:\Program Files (x86)\Microchip\xc8\v2.00\pic\include\pic16f887.h"
   488                           OSCCON equ 08Fh ;# 
   489  008F                     # 1929 "C:\Program Files (x86)\Microchip\xc8\v2.00\pic\include\pic16f887.h"
   490                           OSCTUNE equ 090h ;# 
   491  0090                     # 1981 "C:\Program Files (x86)\Microchip\xc8\v2.00\pic\include\pic16f887.h"
   492                           SSPCON2 equ 091h ;# 
   493  0091                     # 2043 "C:\Program Files (x86)\Microchip\xc8\v2.00\pic\include\pic16f887.h"
   494                           PR2 equ 092h ;# 
   495  0092                     # 2050 "C:\Program Files (x86)\Microchip\xc8\v2.00\pic\include\pic16f887.h"
   496                           SSPADD equ 093h ;# 
   497  0093                     # 2057 "C:\Program Files (x86)\Microchip\xc8\v2.00\pic\include\pic16f887.h"
   498                           SSPMSK equ 093h ;# 
   499  0093                     # 2062 "C:\Program Files (x86)\Microchip\xc8\v2.00\pic\include\pic16f887.h"
   500                           MSK equ 093h ;# 
   501  0093                     # 2179 "C:\Program Files (x86)\Microchip\xc8\v2.00\pic\include\pic16f887.h"
   502                           SSPSTAT equ 094h ;# 
   503  0094                     # 2348 "C:\Program Files (x86)\Microchip\xc8\v2.00\pic\include\pic16f887.h"
   504                           WPUB equ 095h ;# 
   505  0095                     # 2418 "C:\Program Files (x86)\Microchip\xc8\v2.00\pic\include\pic16f887.h"
   506                           IOCB equ 096h ;# 
   507  0096                     # 2488 "C:\Program Files (x86)\Microchip\xc8\v2.00\pic\include\pic16f887.h"
   508                           VRCON equ 097h ;# 
   509  0097                     # 2558 "C:\Program Files (x86)\Microchip\xc8\v2.00\pic\include\pic16f887.h"
   510                           TXSTA equ 098h ;# 
   511  0098                     # 2644 "C:\Program Files (x86)\Microchip\xc8\v2.00\pic\include\pic16f887.h"
   512                           SPBRG equ 099h ;# 
   513  0099                     # 2706 "C:\Program Files (x86)\Microchip\xc8\v2.00\pic\include\pic16f887.h"
   514                           SPBRGH equ 09Ah ;# 
   515  009A                     # 2776 "C:\Program Files (x86)\Microchip\xc8\v2.00\pic\include\pic16f887.h"
   516                           PWM1CON equ 09Bh ;# 
   517  009B                     # 2846 "C:\Program Files (x86)\Microchip\xc8\v2.00\pic\include\pic16f887.h"
   518                           ECCPAS equ 09Ch ;# 
   519  009C                     # 2928 "C:\Program Files (x86)\Microchip\xc8\v2.00\pic\include\pic16f887.h"
   520                           PSTRCON equ 09Dh ;# 
   521  009D                     # 2972 "C:\Program Files (x86)\Microchip\xc8\v2.00\pic\include\pic16f887.h"
   522                           ADRESL equ 09Eh ;# 
   523  009E                     # 2979 "C:\Program Files (x86)\Microchip\xc8\v2.00\pic\include\pic16f887.h"
   524                           ADCON1 equ 09Fh ;# 
   525  009F                     # 3013 "C:\Program Files (x86)\Microchip\xc8\v2.00\pic\include\pic16f887.h"
   526                           WDTCON equ 0105h ;# 
   527  0105                     # 3066 "C:\Program Files (x86)\Microchip\xc8\v2.00\pic\include\pic16f887.h"
   528                           CM1CON0 equ 0107h ;# 
   529  0107                     # 3131 "C:\Program Files (x86)\Microchip\xc8\v2.00\pic\include\pic16f887.h"
   530                           CM2CON0 equ 0108h ;# 
   531  0108                     # 3196 "C:\Program Files (x86)\Microchip\xc8\v2.00\pic\include\pic16f887.h"
   532                           CM2CON1 equ 0109h ;# 
   533  0109                     # 3247 "C:\Program Files (x86)\Microchip\xc8\v2.00\pic\include\pic16f887.h"
   534                           EEDATA equ 010Ch ;# 
   535  010C                     # 3252 "C:\Program Files (x86)\Microchip\xc8\v2.00\pic\include\pic16f887.h"
   536                           EEDAT equ 010Ch ;# 
   537  010C                     # 3259 "C:\Program Files (x86)\Microchip\xc8\v2.00\pic\include\pic16f887.h"
   538                           EEADR equ 010Dh ;# 
   539  010D                     # 3266 "C:\Program Files (x86)\Microchip\xc8\v2.00\pic\include\pic16f887.h"
   540                           EEDATH equ 010Eh ;# 
   541  010E                     # 3273 "C:\Program Files (x86)\Microchip\xc8\v2.00\pic\include\pic16f887.h"
   542                           EEADRH equ 010Fh ;# 
   543  010F                     # 3280 "C:\Program Files (x86)\Microchip\xc8\v2.00\pic\include\pic16f887.h"
   544                           SRCON equ 0185h ;# 
   545  0185                     # 3337 "C:\Program Files (x86)\Microchip\xc8\v2.00\pic\include\pic16f887.h"
   546                           BAUDCTL equ 0187h ;# 
   547  0187                     # 3389 "C:\Program Files (x86)\Microchip\xc8\v2.00\pic\include\pic16f887.h"
   548                           ANSEL equ 0188h ;# 
   549  0188                     # 3451 "C:\Program Files (x86)\Microchip\xc8\v2.00\pic\include\pic16f887.h"
   550                           ANSELH equ 0189h ;# 
   551  0189                     # 3501 "C:\Program Files (x86)\Microchip\xc8\v2.00\pic\include\pic16f887.h"
   552                           EECON1 equ 018Ch ;# 
   553  018C                     # 3546 "C:\Program Files (x86)\Microchip\xc8\v2.00\pic\include\pic16f887.h"
   554                           EECON2 equ 018Dh ;# 
   555  018D                     # 54 "C:\Program Files (x86)\Microchip\xc8\v2.00\pic\include\pic16f887.h"
   556                           INDF equ 00h ;# 
   557  0000                     # 61 "C:\Program Files (x86)\Microchip\xc8\v2.00\pic\include\pic16f887.h"
   558                           TMR0 equ 01h ;# 
   559  0001                     # 68 "C:\Program Files (x86)\Microchip\xc8\v2.00\pic\include\pic16f887.h"
   560                           PCL equ 02h ;# 
   561  0002                     # 75 "C:\Program Files (x86)\Microchip\xc8\v2.00\pic\include\pic16f887.h"
   562                           STATUS equ 03h ;# 
   563  0003                     # 161 "C:\Program Files (x86)\Microchip\xc8\v2.00\pic\include\pic16f887.h"
   564                           FSR equ 04h ;# 
   565  0004                     # 168 "C:\Program Files (x86)\Microchip\xc8\v2.00\pic\include\pic16f887.h"
   566                           PORTA equ 05h ;# 
   567  0005                     # 230 "C:\Program Files (x86)\Microchip\xc8\v2.00\pic\include\pic16f887.h"
   568                           PORTB equ 06h ;# 
   569  0006                     # 292 "C:\Program Files (x86)\Microchip\xc8\v2.00\pic\include\pic16f887.h"
   570                           PORTC equ 07h ;# 
   571  0007                     # 354 "C:\Program Files (x86)\Microchip\xc8\v2.00\pic\include\pic16f887.h"
   572                           PORTD equ 08h ;# 
   573  0008                     # 416 "C:\Program Files (x86)\Microchip\xc8\v2.00\pic\include\pic16f887.h"
   574                           PORTE equ 09h ;# 
   575  0009                     # 454 "C:\Program Files (x86)\Microchip\xc8\v2.00\pic\include\pic16f887.h"
   576                           PCLATH equ 0Ah ;# 
   577  000A                     # 461 "C:\Program Files (x86)\Microchip\xc8\v2.00\pic\include\pic16f887.h"
   578                           INTCON equ 0Bh ;# 
   579  000B                     # 539 "C:\Program Files (x86)\Microchip\xc8\v2.00\pic\include\pic16f887.h"
   580                           PIR1 equ 0Ch ;# 
   581  000C                     # 595 "C:\Program Files (x86)\Microchip\xc8\v2.00\pic\include\pic16f887.h"
   582                           PIR2 equ 0Dh ;# 
   583  000D                     # 652 "C:\Program Files (x86)\Microchip\xc8\v2.00\pic\include\pic16f887.h"
   584                           TMR1 equ 0Eh ;# 
   585  000E                     # 659 "C:\Program Files (x86)\Microchip\xc8\v2.00\pic\include\pic16f887.h"
   586                           TMR1L equ 0Eh ;# 
   587  000E                     # 666 "C:\Program Files (x86)\Microchip\xc8\v2.00\pic\include\pic16f887.h"
   588                           TMR1H equ 0Fh ;# 
   589  000F                     # 673 "C:\Program Files (x86)\Microchip\xc8\v2.00\pic\include\pic16f887.h"
   590                           T1CON equ 010h ;# 
   591  0010                     # 767 "C:\Program Files (x86)\Microchip\xc8\v2.00\pic\include\pic16f887.h"
   592                           TMR2 equ 011h ;# 
   593  0011                     # 774 "C:\Program Files (x86)\Microchip\xc8\v2.00\pic\include\pic16f887.h"
   594                           T2CON equ 012h ;# 
   595  0012                     # 845 "C:\Program Files (x86)\Microchip\xc8\v2.00\pic\include\pic16f887.h"
   596                           SSPBUF equ 013h ;# 
   597  0013                     # 852 "C:\Program Files (x86)\Microchip\xc8\v2.00\pic\include\pic16f887.h"
   598                           SSPCON equ 014h ;# 
   599  0014                     # 922 "C:\Program Files (x86)\Microchip\xc8\v2.00\pic\include\pic16f887.h"
   600                           CCPR1 equ 015h ;# 
   601  0015                     # 929 "C:\Program Files (x86)\Microchip\xc8\v2.00\pic\include\pic16f887.h"
   602                           CCPR1L equ 015h ;# 
   603  0015                     # 936 "C:\Program Files (x86)\Microchip\xc8\v2.00\pic\include\pic16f887.h"
   604                           CCPR1H equ 016h ;# 
   605  0016                     # 943 "C:\Program Files (x86)\Microchip\xc8\v2.00\pic\include\pic16f887.h"
   606                           CCP1CON equ 017h ;# 
   607  0017                     # 1040 "C:\Program Files (x86)\Microchip\xc8\v2.00\pic\include\pic16f887.h"
   608                           RCSTA equ 018h ;# 
   609  0018                     # 1135 "C:\Program Files (x86)\Microchip\xc8\v2.00\pic\include\pic16f887.h"
   610                           TXREG equ 019h ;# 
   611  0019                     # 1142 "C:\Program Files (x86)\Microchip\xc8\v2.00\pic\include\pic16f887.h"
   612                           RCREG equ 01Ah ;# 
   613  001A                     # 1149 "C:\Program Files (x86)\Microchip\xc8\v2.00\pic\include\pic16f887.h"
   614                           CCPR2 equ 01Bh ;# 
   615  001B                     # 1156 "C:\Program Files (x86)\Microchip\xc8\v2.00\pic\include\pic16f887.h"
   616                           CCPR2L equ 01Bh ;# 
   617  001B                     # 1163 "C:\Program Files (x86)\Microchip\xc8\v2.00\pic\include\pic16f887.h"
   618                           CCPR2H equ 01Ch ;# 
   619  001C                     # 1170 "C:\Program Files (x86)\Microchip\xc8\v2.00\pic\include\pic16f887.h"
   620                           CCP2CON equ 01Dh ;# 
   621  001D                     # 1240 "C:\Program Files (x86)\Microchip\xc8\v2.00\pic\include\pic16f887.h"
   622                           ADRESH equ 01Eh ;# 
   623  001E                     # 1247 "C:\Program Files (x86)\Microchip\xc8\v2.00\pic\include\pic16f887.h"
   624                           ADCON0 equ 01Fh ;# 
   625  001F                     # 1348 "C:\Program Files (x86)\Microchip\xc8\v2.00\pic\include\pic16f887.h"
   626                           OPTION_REG equ 081h ;# 
   627  0081                     # 1418 "C:\Program Files (x86)\Microchip\xc8\v2.00\pic\include\pic16f887.h"
   628                           TRISA equ 085h ;# 
   629  0085                     # 1480 "C:\Program Files (x86)\Microchip\xc8\v2.00\pic\include\pic16f887.h"
   630                           TRISB equ 086h ;# 
   631  0086                     # 1542 "C:\Program Files (x86)\Microchip\xc8\v2.00\pic\include\pic16f887.h"
   632                           TRISC equ 087h ;# 
   633  0087                     # 1604 "C:\Program Files (x86)\Microchip\xc8\v2.00\pic\include\pic16f887.h"
   634                           TRISD equ 088h ;# 
   635  0088                     # 1666 "C:\Program Files (x86)\Microchip\xc8\v2.00\pic\include\pic16f887.h"
   636                           TRISE equ 089h ;# 
   637  0089                     # 1704 "C:\Program Files (x86)\Microchip\xc8\v2.00\pic\include\pic16f887.h"
   638                           PIE1 equ 08Ch ;# 
   639  008C                     # 1760 "C:\Program Files (x86)\Microchip\xc8\v2.00\pic\include\pic16f887.h"
   640                           PIE2 equ 08Dh ;# 
   641  008D                     # 1817 "C:\Program Files (x86)\Microchip\xc8\v2.00\pic\include\pic16f887.h"
   642                           PCON equ 08Eh ;# 
   643  008E                     # 1864 "C:\Program Files (x86)\Microchip\xc8\v2.00\pic\include\pic16f887.h"
   644                           OSCCON equ 08Fh ;# 
   645  008F                     # 1929 "C:\Program Files (x86)\Microchip\xc8\v2.00\pic\include\pic16f887.h"
   646                           OSCTUNE equ 090h ;# 
   647  0090                     # 1981 "C:\Program Files (x86)\Microchip\xc8\v2.00\pic\include\pic16f887.h"
   648                           SSPCON2 equ 091h ;# 
   649  0091                     # 2043 "C:\Program Files (x86)\Microchip\xc8\v2.00\pic\include\pic16f887.h"
   650                           PR2 equ 092h ;# 
   651  0092                     # 2050 "C:\Program Files (x86)\Microchip\xc8\v2.00\pic\include\pic16f887.h"
   652                           SSPADD equ 093h ;# 
   653  0093                     # 2057 "C:\Program Files (x86)\Microchip\xc8\v2.00\pic\include\pic16f887.h"
   654                           SSPMSK equ 093h ;# 
   655  0093                     # 2062 "C:\Program Files (x86)\Microchip\xc8\v2.00\pic\include\pic16f887.h"
   656                           MSK equ 093h ;# 
   657  0093                     # 2179 "C:\Program Files (x86)\Microchip\xc8\v2.00\pic\include\pic16f887.h"
   658                           SSPSTAT equ 094h ;# 
   659  0094                     # 2348 "C:\Program Files (x86)\Microchip\xc8\v2.00\pic\include\pic16f887.h"
   660                           WPUB equ 095h ;# 
   661  0095                     # 2418 "C:\Program Files (x86)\Microchip\xc8\v2.00\pic\include\pic16f887.h"
   662                           IOCB equ 096h ;# 
   663  0096                     # 2488 "C:\Program Files (x86)\Microchip\xc8\v2.00\pic\include\pic16f887.h"
   664                           VRCON equ 097h ;# 
   665  0097                     # 2558 "C:\Program Files (x86)\Microchip\xc8\v2.00\pic\include\pic16f887.h"
   666                           TXSTA equ 098h ;# 
   667  0098                     # 2644 "C:\Program Files (x86)\Microchip\xc8\v2.00\pic\include\pic16f887.h"
   668                           SPBRG equ 099h ;# 
   669  0099                     # 2706 "C:\Program Files (x86)\Microchip\xc8\v2.00\pic\include\pic16f887.h"
   670                           SPBRGH equ 09Ah ;# 
   671  009A                     # 2776 "C:\Program Files (x86)\Microchip\xc8\v2.00\pic\include\pic16f887.h"
   672                           PWM1CON equ 09Bh ;# 
   673  009B                     # 2846 "C:\Program Files (x86)\Microchip\xc8\v2.00\pic\include\pic16f887.h"
   674                           ECCPAS equ 09Ch ;# 
   675  009C                     # 2928 "C:\Program Files (x86)\Microchip\xc8\v2.00\pic\include\pic16f887.h"
   676                           PSTRCON equ 09Dh ;# 
   677  009D                     # 2972 "C:\Program Files (x86)\Microchip\xc8\v2.00\pic\include\pic16f887.h"
   678                           ADRESL equ 09Eh ;# 
   679  009E                     # 2979 "C:\Program Files (x86)\Microchip\xc8\v2.00\pic\include\pic16f887.h"
   680                           ADCON1 equ 09Fh ;# 
   681  009F                     # 3013 "C:\Program Files (x86)\Microchip\xc8\v2.00\pic\include\pic16f887.h"
   682                           WDTCON equ 0105h ;# 
   683  0105                     # 3066 "C:\Program Files (x86)\Microchip\xc8\v2.00\pic\include\pic16f887.h"
   684                           CM1CON0 equ 0107h ;# 
   685  0107                     # 3131 "C:\Program Files (x86)\Microchip\xc8\v2.00\pic\include\pic16f887.h"
   686                           CM2CON0 equ 0108h ;# 
   687  0108                     # 3196 "C:\Program Files (x86)\Microchip\xc8\v2.00\pic\include\pic16f887.h"
   688                           CM2CON1 equ 0109h ;# 
   689  0109                     # 3247 "C:\Program Files (x86)\Microchip\xc8\v2.00\pic\include\pic16f887.h"
   690                           EEDATA equ 010Ch ;# 
   691  010C                     # 3252 "C:\Program Files (x86)\Microchip\xc8\v2.00\pic\include\pic16f887.h"
   692                           EEDAT equ 010Ch ;# 
   693  010C                     # 3259 "C:\Program Files (x86)\Microchip\xc8\v2.00\pic\include\pic16f887.h"
   694                           EEADR equ 010Dh ;# 
   695  010D                     # 3266 "C:\Program Files (x86)\Microchip\xc8\v2.00\pic\include\pic16f887.h"
   696                           EEDATH equ 010Eh ;# 
   697  010E                     # 3273 "C:\Program Files (x86)\Microchip\xc8\v2.00\pic\include\pic16f887.h"
   698                           EEADRH equ 010Fh ;# 
   699  010F                     # 3280 "C:\Program Files (x86)\Microchip\xc8\v2.00\pic\include\pic16f887.h"
   700                           SRCON equ 0185h ;# 
   701  0185                     # 3337 "C:\Program Files (x86)\Microchip\xc8\v2.00\pic\include\pic16f887.h"
   702                           BAUDCTL equ 0187h ;# 
   703  0187                     # 3389 "C:\Program Files (x86)\Microchip\xc8\v2.00\pic\include\pic16f887.h"
   704                           ANSEL equ 0188h ;# 
   705  0188                     # 3451 "C:\Program Files (x86)\Microchip\xc8\v2.00\pic\include\pic16f887.h"
   706                           ANSELH equ 0189h ;# 
   707  0189                     # 3501 "C:\Program Files (x86)\Microchip\xc8\v2.00\pic\include\pic16f887.h"
   708                           EECON1 equ 018Ch ;# 
   709  018C                     # 3546 "C:\Program Files (x86)\Microchip\xc8\v2.00\pic\include\pic16f887.h"
   710                           EECON2 equ 018Dh ;# 
   711  018D                     # 54 "C:\Program Files (x86)\Microchip\xc8\v2.00\pic\include\pic16f887.h"
   712                           INDF equ 00h ;# 
   713  0000                     # 61 "C:\Program Files (x86)\Microchip\xc8\v2.00\pic\include\pic16f887.h"
   714                           TMR0 equ 01h ;# 
   715  0001                     # 68 "C:\Program Files (x86)\Microchip\xc8\v2.00\pic\include\pic16f887.h"
   716                           PCL equ 02h ;# 
   717  0002                     # 75 "C:\Program Files (x86)\Microchip\xc8\v2.00\pic\include\pic16f887.h"
   718                           STATUS equ 03h ;# 
   719  0003                     # 161 "C:\Program Files (x86)\Microchip\xc8\v2.00\pic\include\pic16f887.h"
   720                           FSR equ 04h ;# 
   721  0004                     # 168 "C:\Program Files (x86)\Microchip\xc8\v2.00\pic\include\pic16f887.h"
   722                           PORTA equ 05h ;# 
   723  0005                     # 230 "C:\Program Files (x86)\Microchip\xc8\v2.00\pic\include\pic16f887.h"
   724                           PORTB equ 06h ;# 
   725  0006                     # 292 "C:\Program Files (x86)\Microchip\xc8\v2.00\pic\include\pic16f887.h"
   726                           PORTC equ 07h ;# 
   727  0007                     # 354 "C:\Program Files (x86)\Microchip\xc8\v2.00\pic\include\pic16f887.h"
   728                           PORTD equ 08h ;# 
   729  0008                     # 416 "C:\Program Files (x86)\Microchip\xc8\v2.00\pic\include\pic16f887.h"
   730                           PORTE equ 09h ;# 
   731  0009                     # 454 "C:\Program Files (x86)\Microchip\xc8\v2.00\pic\include\pic16f887.h"
   732                           PCLATH equ 0Ah ;# 
   733  000A                     # 461 "C:\Program Files (x86)\Microchip\xc8\v2.00\pic\include\pic16f887.h"
   734                           INTCON equ 0Bh ;# 
   735  000B                     # 539 "C:\Program Files (x86)\Microchip\xc8\v2.00\pic\include\pic16f887.h"
   736                           PIR1 equ 0Ch ;# 
   737  000C                     # 595 "C:\Program Files (x86)\Microchip\xc8\v2.00\pic\include\pic16f887.h"
   738                           PIR2 equ 0Dh ;# 
   739  000D                     # 652 "C:\Program Files (x86)\Microchip\xc8\v2.00\pic\include\pic16f887.h"
   740                           TMR1 equ 0Eh ;# 
   741  000E                     # 659 "C:\Program Files (x86)\Microchip\xc8\v2.00\pic\include\pic16f887.h"
   742                           TMR1L equ 0Eh ;# 
   743  000E                     # 666 "C:\Program Files (x86)\Microchip\xc8\v2.00\pic\include\pic16f887.h"
   744                           TMR1H equ 0Fh ;# 
   745  000F                     # 673 "C:\Program Files (x86)\Microchip\xc8\v2.00\pic\include\pic16f887.h"
   746                           T1CON equ 010h ;# 
   747  0010                     # 767 "C:\Program Files (x86)\Microchip\xc8\v2.00\pic\include\pic16f887.h"
   748                           TMR2 equ 011h ;# 
   749  0011                     # 774 "C:\Program Files (x86)\Microchip\xc8\v2.00\pic\include\pic16f887.h"
   750                           T2CON equ 012h ;# 
   751  0012                     # 845 "C:\Program Files (x86)\Microchip\xc8\v2.00\pic\include\pic16f887.h"
   752                           SSPBUF equ 013h ;# 
   753  0013                     # 852 "C:\Program Files (x86)\Microchip\xc8\v2.00\pic\include\pic16f887.h"
   754                           SSPCON equ 014h ;# 
   755  0014                     # 922 "C:\Program Files (x86)\Microchip\xc8\v2.00\pic\include\pic16f887.h"
   756                           CCPR1 equ 015h ;# 
   757  0015                     # 929 "C:\Program Files (x86)\Microchip\xc8\v2.00\pic\include\pic16f887.h"
   758                           CCPR1L equ 015h ;# 
   759  0015                     # 936 "C:\Program Files (x86)\Microchip\xc8\v2.00\pic\include\pic16f887.h"
   760                           CCPR1H equ 016h ;# 
   761  0016                     # 943 "C:\Program Files (x86)\Microchip\xc8\v2.00\pic\include\pic16f887.h"
   762                           CCP1CON equ 017h ;# 
   763  0017                     # 1040 "C:\Program Files (x86)\Microchip\xc8\v2.00\pic\include\pic16f887.h"
   764                           RCSTA equ 018h ;# 
   765  0018                     # 1135 "C:\Program Files (x86)\Microchip\xc8\v2.00\pic\include\pic16f887.h"
   766                           TXREG equ 019h ;# 
   767  0019                     # 1142 "C:\Program Files (x86)\Microchip\xc8\v2.00\pic\include\pic16f887.h"
   768                           RCREG equ 01Ah ;# 
   769  001A                     # 1149 "C:\Program Files (x86)\Microchip\xc8\v2.00\pic\include\pic16f887.h"
   770                           CCPR2 equ 01Bh ;# 
   771  001B                     # 1156 "C:\Program Files (x86)\Microchip\xc8\v2.00\pic\include\pic16f887.h"
   772                           CCPR2L equ 01Bh ;# 
   773  001B                     # 1163 "C:\Program Files (x86)\Microchip\xc8\v2.00\pic\include\pic16f887.h"
   774                           CCPR2H equ 01Ch ;# 
   775  001C                     # 1170 "C:\Program Files (x86)\Microchip\xc8\v2.00\pic\include\pic16f887.h"
   776                           CCP2CON equ 01Dh ;# 
   777  001D                     # 1240 "C:\Program Files (x86)\Microchip\xc8\v2.00\pic\include\pic16f887.h"
   778                           ADRESH equ 01Eh ;# 
   779  001E                     # 1247 "C:\Program Files (x86)\Microchip\xc8\v2.00\pic\include\pic16f887.h"
   780                           ADCON0 equ 01Fh ;# 
   781  001F                     # 1348 "C:\Program Files (x86)\Microchip\xc8\v2.00\pic\include\pic16f887.h"
   782                           OPTION_REG equ 081h ;# 
   783  0081                     # 1418 "C:\Program Files (x86)\Microchip\xc8\v2.00\pic\include\pic16f887.h"
   784                           TRISA equ 085h ;# 
   785  0085                     # 1480 "C:\Program Files (x86)\Microchip\xc8\v2.00\pic\include\pic16f887.h"
   786                           TRISB equ 086h ;# 
   787  0086                     # 1542 "C:\Program Files (x86)\Microchip\xc8\v2.00\pic\include\pic16f887.h"
   788                           TRISC equ 087h ;# 
   789  0087                     # 1604 "C:\Program Files (x86)\Microchip\xc8\v2.00\pic\include\pic16f887.h"
   790                           TRISD equ 088h ;# 
   791  0088                     # 1666 "C:\Program Files (x86)\Microchip\xc8\v2.00\pic\include\pic16f887.h"
   792                           TRISE equ 089h ;# 
   793  0089                     # 1704 "C:\Program Files (x86)\Microchip\xc8\v2.00\pic\include\pic16f887.h"
   794                           PIE1 equ 08Ch ;# 
   795  008C                     # 1760 "C:\Program Files (x86)\Microchip\xc8\v2.00\pic\include\pic16f887.h"
   796                           PIE2 equ 08Dh ;# 
   797  008D                     # 1817 "C:\Program Files (x86)\Microchip\xc8\v2.00\pic\include\pic16f887.h"
   798                           PCON equ 08Eh ;# 
   799  008E                     # 1864 "C:\Program Files (x86)\Microchip\xc8\v2.00\pic\include\pic16f887.h"
   800                           OSCCON equ 08Fh ;# 
   801  008F                     # 1929 "C:\Program Files (x86)\Microchip\xc8\v2.00\pic\include\pic16f887.h"
   802                           OSCTUNE equ 090h ;# 
   803  0090                     # 1981 "C:\Program Files (x86)\Microchip\xc8\v2.00\pic\include\pic16f887.h"
   804                           SSPCON2 equ 091h ;# 
   805  0091                     # 2043 "C:\Program Files (x86)\Microchip\xc8\v2.00\pic\include\pic16f887.h"
   806                           PR2 equ 092h ;# 
   807  0092                     # 2050 "C:\Program Files (x86)\Microchip\xc8\v2.00\pic\include\pic16f887.h"
   808                           SSPADD equ 093h ;# 
   809  0093                     # 2057 "C:\Program Files (x86)\Microchip\xc8\v2.00\pic\include\pic16f887.h"
   810                           SSPMSK equ 093h ;# 
   811  0093                     # 2062 "C:\Program Files (x86)\Microchip\xc8\v2.00\pic\include\pic16f887.h"
   812                           MSK equ 093h ;# 
   813  0093                     # 2179 "C:\Program Files (x86)\Microchip\xc8\v2.00\pic\include\pic16f887.h"
   814                           SSPSTAT equ 094h ;# 
   815  0094                     # 2348 "C:\Program Files (x86)\Microchip\xc8\v2.00\pic\include\pic16f887.h"
   816                           WPUB equ 095h ;# 
   817  0095                     # 2418 "C:\Program Files (x86)\Microchip\xc8\v2.00\pic\include\pic16f887.h"
   818                           IOCB equ 096h ;# 
   819  0096                     # 2488 "C:\Program Files (x86)\Microchip\xc8\v2.00\pic\include\pic16f887.h"
   820                           VRCON equ 097h ;# 
   821  0097                     # 2558 "C:\Program Files (x86)\Microchip\xc8\v2.00\pic\include\pic16f887.h"
   822                           TXSTA equ 098h ;# 
   823  0098                     # 2644 "C:\Program Files (x86)\Microchip\xc8\v2.00\pic\include\pic16f887.h"
   824                           SPBRG equ 099h ;# 
   825  0099                     # 2706 "C:\Program Files (x86)\Microchip\xc8\v2.00\pic\include\pic16f887.h"
   826                           SPBRGH equ 09Ah ;# 
   827  009A                     # 2776 "C:\Program Files (x86)\Microchip\xc8\v2.00\pic\include\pic16f887.h"
   828                           PWM1CON equ 09Bh ;# 
   829  009B                     # 2846 "C:\Program Files (x86)\Microchip\xc8\v2.00\pic\include\pic16f887.h"
   830                           ECCPAS equ 09Ch ;# 
   831  009C                     # 2928 "C:\Program Files (x86)\Microchip\xc8\v2.00\pic\include\pic16f887.h"
   832                           PSTRCON equ 09Dh ;# 
   833  009D                     # 2972 "C:\Program Files (x86)\Microchip\xc8\v2.00\pic\include\pic16f887.h"
   834                           ADRESL equ 09Eh ;# 
   835  009E                     # 2979 "C:\Program Files (x86)\Microchip\xc8\v2.00\pic\include\pic16f887.h"
   836                           ADCON1 equ 09Fh ;# 
   837  009F                     # 3013 "C:\Program Files (x86)\Microchip\xc8\v2.00\pic\include\pic16f887.h"
   838                           WDTCON equ 0105h ;# 
   839  0105                     # 3066 "C:\Program Files (x86)\Microchip\xc8\v2.00\pic\include\pic16f887.h"
   840                           CM1CON0 equ 0107h ;# 
   841  0107                     # 3131 "C:\Program Files (x86)\Microchip\xc8\v2.00\pic\include\pic16f887.h"
   842                           CM2CON0 equ 0108h ;# 
   843  0108                     # 3196 "C:\Program Files (x86)\Microchip\xc8\v2.00\pic\include\pic16f887.h"
   844                           CM2CON1 equ 0109h ;# 
   845  0109                     # 3247 "C:\Program Files (x86)\Microchip\xc8\v2.00\pic\include\pic16f887.h"
   846                           EEDATA equ 010Ch ;# 
   847  010C                     # 3252 "C:\Program Files (x86)\Microchip\xc8\v2.00\pic\include\pic16f887.h"
   848                           EEDAT equ 010Ch ;# 
   849  010C                     # 3259 "C:\Program Files (x86)\Microchip\xc8\v2.00\pic\include\pic16f887.h"
   850                           EEADR equ 010Dh ;# 
   851  010D                     # 3266 "C:\Program Files (x86)\Microchip\xc8\v2.00\pic\include\pic16f887.h"
   852                           EEDATH equ 010Eh ;# 
   853  010E                     # 3273 "C:\Program Files (x86)\Microchip\xc8\v2.00\pic\include\pic16f887.h"
   854                           EEADRH equ 010Fh ;# 
   855  010F                     # 3280 "C:\Program Files (x86)\Microchip\xc8\v2.00\pic\include\pic16f887.h"
   856                           SRCON equ 0185h ;# 
   857  0185                     # 3337 "C:\Program Files (x86)\Microchip\xc8\v2.00\pic\include\pic16f887.h"
   858                           BAUDCTL equ 0187h ;# 
   859  0187                     # 3389 "C:\Program Files (x86)\Microchip\xc8\v2.00\pic\include\pic16f887.h"
   860                           ANSEL equ 0188h ;# 
   861  0188                     # 3451 "C:\Program Files (x86)\Microchip\xc8\v2.00\pic\include\pic16f887.h"
   862                           ANSELH equ 0189h ;# 
   863  0189                     # 3501 "C:\Program Files (x86)\Microchip\xc8\v2.00\pic\include\pic16f887.h"
   864                           EECON1 equ 018Ch ;# 
   865  018C                     # 3546 "C:\Program Files (x86)\Microchip\xc8\v2.00\pic\include\pic16f887.h"
   866                           EECON2 equ 018Dh ;# 
   867  018D                     	FNCALL	_main,_botoes_init
   868                           	FNCALL	_main,_contatores_init
   869                           	FNCALL	_main,_delay
   870                           	FNCALL	_main,_k1
   871                           	FNCALL	_main,_k2
   872                           	FNCALL	_main,_k3
   873                           	FNCALL	_main,_s0
   874                           	FNCALL	_main,_s1
   875                           	FNROOT	_main
   876                           	global	_PORTDbits
   877                           _PORTDbits	set	0x8
   878  0008                     	global	_TRISDbits
   879                           _TRISDbits	set	0x88
   880  0088                     ; #config settings
   881                           global __CFG_FOSC$INTRC_NOCLKOUT
   882                           __CFG_FOSC$INTRC_NOCLKOUT equ 0x0
   883  0000                     global __CFG_WDTE$OFF
   884                           __CFG_WDTE$OFF equ 0x0
   885  0000                     global __CFG_PWRTE$OFF
   886                           __CFG_PWRTE$OFF equ 0x0
   887  0000                     global __CFG_MCLRE$OFF
   888                           __CFG_MCLRE$OFF equ 0x0
   889  0000                     global __CFG_CP$OFF
   890                           __CFG_CP$OFF equ 0x0
   891  0000                     global __CFG_CPD$OFF
   892                           __CFG_CPD$OFF equ 0x0
   893  0000                     global __CFG_BOREN$OFF
   894                           __CFG_BOREN$OFF equ 0x0
   895  0000                     global __CFG_IESO$OFF
   896                           __CFG_IESO$OFF equ 0x0
   897  0000                     global __CFG_FCMEN$OFF
   898                           __CFG_FCMEN$OFF equ 0x0
   899  0000                     global __CFG_LVP$OFF
   900                           __CFG_LVP$OFF equ 0x0
   901  0000                     global __CFG_BOR4V$BOR40V
   902                           __CFG_BOR4V$BOR40V equ 0x0
   903  0000                     global __CFG_WRT$OFF
   904                           __CFG_WRT$OFF equ 0x0
   905  0000                     	file	"C:\Users\20185189\AppData\Local\Temp\s5p8."
   906                           	line	#
   907                           psect cinit,class=CODE,delta=2
   908                           global start_initialization
   909                           start_initialization:
   910  07FC                     
   911                           global __initialization
   912                           __initialization:
   913  07FC                     psect cinit,class=CODE,delta=2,merge=1
   914                           global end_of_initialization,__end_of__initialization
   915                           
   916                           ;End of C runtime variable initialization code
   917                           
   918                           end_of_initialization:
   919  07FC                     __end_of__initialization:
   920  07FC                     clrf status
   921  07FC  0183               ljmp _main	;jump to C main() function
   922  07FD  120A  118A  2F3F   psect	cstackCOMMON,class=COMMON,space=1,noexec
   923                           global __pcstackCOMMON
   924                           __pcstackCOMMON:
   925  0070                     ?_contatores_init:	; 1 bytes @ 0x0
   926  0070                     ??_contatores_init:	; 1 bytes @ 0x0
   927  0070                     ?_botoes_init:	; 1 bytes @ 0x0
   928  0070                     ??_botoes_init:	; 1 bytes @ 0x0
   929  0070                     ?_s1:	; 1 bytes @ 0x0
   930  0070                     ??_s1:	; 1 bytes @ 0x0
   931  0070                     ?_k1:	; 1 bytes @ 0x0
   932  0070                     ?_k2:	; 1 bytes @ 0x0
   933  0070                     ?_delay:	; 1 bytes @ 0x0
   934  0070                     ?_k3:	; 1 bytes @ 0x0
   935  0070                     ?_s0:	; 1 bytes @ 0x0
   936  0070                     ??_s0:	; 1 bytes @ 0x0
   937  0070                     ?_main:	; 1 bytes @ 0x0
   938  0070                     	global	k1@estado
   939                           k1@estado:	; 2 bytes @ 0x0
   940  0070                     	global	k2@estado
   941                           k2@estado:	; 2 bytes @ 0x0
   942  0070                     	global	k3@estado
   943                           k3@estado:	; 2 bytes @ 0x0
   944  0070                     	global	delay@t
   945                           delay@t:	; 2 bytes @ 0x0
   946  0070                     	ds	2
   947  0070                     ??_k1:	; 1 bytes @ 0x2
   948  0072                     ??_k2:	; 1 bytes @ 0x2
   949  0072                     ??_delay:	; 1 bytes @ 0x2
   950  0072                     ??_k3:	; 1 bytes @ 0x2
   951  0072                     	ds	1
   952  0072                     ??_main:	; 1 bytes @ 0x3
   953  0073                     	global	main@t
   954                           main@t:	; 2 bytes @ 0x3
   955  0073                     	ds	2
   956  0073                     	global	main@estado
   957                           main@estado:	; 2 bytes @ 0x5
   958  0075                     	ds	2
   959  0075                     ;!
   960                           ;!Data Sizes:
   961                           ;!    Strings     0
   962                           ;!    Constant    0
   963                           ;!    Data        0
   964                           ;!    BSS         0
   965                           ;!    Persistent  0
   966                           ;!    Stack       0
   967                           ;!
   968                           ;!Auto Spaces:
   969                           ;!    Space          Size  Autos    Used
   970                           ;!    COMMON           14      7       7
   971                           ;!    BANK0            80      0       0
   972                           ;!    BANK1            80      0       0
   973                           ;!    BANK3            96      0       0
   974                           ;!    BANK2            96      0       0
   975                           
   976                           ;!
   977                           ;!Pointer List with Targets:
   978                           ;!
   979                           ;!    None.
   980                           
   981                           
   982                           ;!
   983                           ;!Critical Paths under _main in COMMON
   984                           ;!
   985                           ;!    _main->_delay
   986                           ;!
   987                           ;!Critical Paths under _main in BANK0
   988                           ;!
   989                           ;!    None.
   990                           ;!
   991                           ;!Critical Paths under _main in BANK1
   992                           ;!
   993                           ;!    None.
   994                           ;!
   995                           ;!Critical Paths under _main in BANK3
   996                           ;!
   997                           ;!    None.
   998                           ;!
   999                           ;!Critical Paths under _main in BANK2
  1000                           ;!
  1001                           ;!    None.
  1002                           
  1003 ;;
  1004 ;;Main: autosize = 0, tempsize = 0, incstack = 0, save=0
  1005 ;;
  1006                           
  1007                           ;!
  1008                           ;!Call Graph Tables:
  1009                           ;!
  1010                           ;! ---------------------------------------------------------------------------------
  1011                           ;! (Depth) Function   	        Calls       Base Space   Used Autos Params    Refs
  1012                           ;! ---------------------------------------------------------------------------------
  1013                           ;! (0) _main                                                 4     4      0     750
  1014                           ;!                                              3 COMMON     4     4      0
  1015                           ;!                        _botoes_init
  1016                           ;!                    _contatores_init
  1017                           ;!                              _delay
  1018                           ;!                                 _k1
  1019                           ;!                                 _k2
  1020                           ;!                                 _k3
  1021                           ;!                                 _s0
  1022                           ;!                                 _s1
  1023                           ;! ---------------------------------------------------------------------------------
  1024                           ;! (1) _s1                                                   0     0      0       0
  1025                           ;! ---------------------------------------------------------------------------------
  1026                           ;! (1) _s0                                                   0     0      0       0
  1027                           ;! ---------------------------------------------------------------------------------
  1028                           ;! (1) _k3                                                   2     0      2     174
  1029                           ;!                                              0 COMMON     2     0      2
  1030                           ;! ---------------------------------------------------------------------------------
  1031                           ;! (1) _k2                                                   2     0      2     250
  1032                           ;!                                              0 COMMON     2     0      2
  1033                           ;! ---------------------------------------------------------------------------------
  1034                           ;! (1) _k1                                                   2     0      2     174
  1035                           ;!                                              0 COMMON     2     0      2
  1036                           ;! ---------------------------------------------------------------------------------
  1037                           ;! (1) _delay                                                3     1      2      99
  1038                           ;!                                              0 COMMON     3     1      2
  1039                           ;! ---------------------------------------------------------------------------------
  1040                           ;! (1) _contatores_init                                      0     0      0       0
  1041                           ;! ---------------------------------------------------------------------------------
  1042                           ;! (1) _botoes_init                                          0     0      0       0
  1043                           ;! ---------------------------------------------------------------------------------
  1044                           ;! Estimated maximum stack depth 1
  1045                           ;! ---------------------------------------------------------------------------------
  1046                           ;!
  1047                           ;! Call Graph Graphs:
  1048                           ;!
  1049                           ;! _main (ROOT)
  1050                           ;!   _botoes_init
  1051                           ;!   _contatores_init
  1052                           ;!   _delay
  1053                           ;!   _k1
  1054                           ;!   _k2
  1055                           ;!   _k3
  1056                           ;!   _s0
  1057                           ;!   _s1
  1058                           ;!
  1059                           
  1060                           ;! Address spaces:
  1061                           
  1062                           ;!Name               Size   Autos  Total    Cost      Usage
  1063                           ;!BITCOMMON            E      0       0       0        0.0%
  1064                           ;!EEDATA             100      0       0       0        0.0%
  1065                           ;!NULL                 0      0       0       0        0.0%
  1066                           ;!CODE                 0      0       0       0        0.0%
  1067                           ;!COMMON               E      7       7       1       50.0%
  1068                           ;!BITSFR0              0      0       0       1        0.0%
  1069                           ;!SFR0                 0      0       0       1        0.0%
  1070                           ;!BITSFR1              0      0       0       2        0.0%
  1071                           ;!SFR1                 0      0       0       2        0.0%
  1072                           ;!STACK                0      0       0       2        0.0%
  1073                           ;!ABS                  0      0       0       3        0.0%
  1074                           ;!BITBANK0            50      0       0       4        0.0%
  1075                           ;!BITSFR3              0      0       0       4        0.0%
  1076                           ;!SFR3                 0      0       0       4        0.0%
  1077                           ;!BANK0               50      0       0       5        0.0%
  1078                           ;!BITSFR2              0      0       0       5        0.0%
  1079                           ;!SFR2                 0      0       0       5        0.0%
  1080                           ;!BITBANK1            50      0       0       6        0.0%
  1081                           ;!BANK1               50      0       0       7        0.0%
  1082                           ;!BITBANK3            60      0       0       8        0.0%
  1083                           ;!BANK3               60      0       0       9        0.0%
  1084                           ;!BITBANK2            60      0       0      10        0.0%
  1085                           ;!BANK2               60      0       0      11        0.0%
  1086                           ;!DATA                 0      0       0      12        0.0%
  1087                           
  1088                           	global	_main
  1089                           
  1090 ;; *************** function _main *****************
  1091 ;; Defined at:
  1092 ;;		line 14 in file "main.c"
  1093 ;; Parameters:    Size  Location     Type
  1094 ;;		None
  1095 ;; Auto vars:     Size  Location     Type
  1096 ;;  estado          2    5[COMMON] int 
  1097 ;;  t               2    3[COMMON] int 
  1098 ;; Return value:  Size  Location     Type
  1099 ;;                  1    wreg      void 
  1100 ;; Registers used:
  1101 ;;		wreg, fsr0l, fsr0h, status,2, status,0, btemp+1, pclath, cstack
  1102 ;; Tracked objects:
  1103 ;;		On entry : B00/0
  1104 ;;		On exit  : 0/0
  1105 ;;		Unchanged: 0/0
  1106 ;; Data sizes:     COMMON   BANK0   BANK1   BANK3   BANK2
  1107 ;;      Params:         0       0       0       0       0
  1108 ;;      Locals:         4       0       0       0       0
  1109 ;;      Temps:          0       0       0       0       0
  1110 ;;      Totals:         4       0       0       0       0
  1111 ;;Total ram usage:        4 bytes
  1112 ;; Hardware stack levels required when called:    1
  1113 ;; This function calls:
  1114 ;;		_botoes_init
  1115 ;;		_contatores_init
  1116 ;;		_delay
  1117 ;;		_k1
  1118 ;;		_k2
  1119 ;;		_k3
  1120 ;;		_s0
  1121 ;;		_s1
  1122 ;; This function is called by:
  1123 ;;		Startup code after reset
  1124 ;; This function uses a non-reentrant model
  1125 ;;
  1126                           psect	maintext,global,class=CODE,delta=2,split=1,group=0
  1127                           	file	"main.c"
  1128                           	line	14
  1129                           global __pmaintext
  1130                           __pmaintext:	;psect for function _main
  1131  073F                     psect	maintext
  1132                           	file	"main.c"
  1133                           	line	14
  1134                           	global	__size_of_main
  1135                           	__size_of_main	equ	__end_of_main-_main
  1136  00BD                     	
  1137                           _main:	
  1138  073F                     ;incstack = 0
  1139                           	opt	stack 7
  1140                           ; Regs used in _main: [wreg-fsr0h+status,2+status,0+btemp+1+pclath+cstack]
  1141                           	line	16
  1142                           	
  1143                           l760:	
  1144  073F                     ;main.c: 16:     int estado = 0;
  1145                           	clrf	(main@estado)
  1146  073F  01F5               	clrf	(main@estado+1)
  1147  0740  01F6               	goto	l794
  1148  0741  2FDE               	line	19
  1149                           ;main.c: 17:     int t;;main.c: 19:     while(1)
  1150                           	
  1151                           l21:	
  1152  0742                     	line	21
  1153                           ;main.c: 20:     {;main.c: 21:         switch (estado)
  1154                           	goto	l794
  1155  0742  2FDE               	line	23
  1156                           ;main.c: 22:         {;main.c: 23:             case 0:
  1157                           	
  1158                           l23:	
  1159  0743                     	line	24
  1160                           	
  1161                           l762:	
  1162  0743                     ;main.c: 24:                 estado = 1;
  1163                           	movlw	01h
  1164  0743  3001               	movwf	(main@estado)
  1165  0744  00F5               	movlw	0
  1166  0745  3000               	movwf	((main@estado))+1
  1167  0746  00F6               	line	25
  1168                           ;main.c: 25:                     break;
  1169                           	goto	l794
  1170  0747  2FDE               	line	27
  1171                           ;main.c: 27:             case 1:
  1172                           	
  1173                           l25:	
  1174  0748                     	line	28
  1175                           	
  1176                           l764:	
  1177  0748                     ;main.c: 28:                 contatores_init();
  1178                           	fcall	_contatores_init
  1179  0748  120A  118A  271D  120A  118A  	line	29
  1180                           ;main.c: 29:                 botoes_init();
  1181                           	fcall	_botoes_init
  1182  074D  120A  118A  26F4  120A  118A  	line	30
  1183                           	
  1184                           l766:	
  1185  0752                     ;main.c: 30:                 if(s1() == 1)
  1186                           	fcall	_s1
  1187  0752  120A  118A  26FF  120A  118A  	xorlw	01h
  1188  0757  3A01               	skipz
  1189  0758  1D03               	goto	u61
  1190  0759  2F5B               	goto	u60
  1191  075A  2F5C               u61:
  1192  075B                     	goto	l794
  1193  075B  2FDE               u60:
  1194  075C                     	line	31
  1195                           	
  1196                           l768:	
  1197  075C                     ;main.c: 31:                 estado = 2;
  1198                           	movlw	02h
  1199  075C  3002               	movwf	(main@estado)
  1200  075D  00F5               	movlw	0
  1201  075E  3000               	movwf	((main@estado))+1
  1202  075F  00F6               	goto	l794
  1203  0760  2FDE               	
  1204                           l26:	
  1205  0761                     	line	32
  1206                           ;main.c: 32:                     break;
  1207                           	goto	l794
  1208  0761  2FDE               	line	33
  1209                           ;main.c: 33:             case 2:
  1210                           	
  1211                           l27:	
  1212  0762                     	line	34
  1213                           	
  1214                           l770:	
  1215  0762                     ;main.c: 34:                 k1(1);
  1216                           	movlw	01h
  1217  0762  3001               	movwf	(k1@estado)
  1218  0763  00F0               	movlw	0
  1219  0764  3000               	movwf	((k1@estado))+1
  1220  0765  00F1               	fcall	_k1
  1221  0766  120A  118A  2705  120A  118A  	line	35
  1222                           ;main.c: 35:                 k2(1);
  1223                           	movlw	01h
  1224  076B  3001               	movwf	(k2@estado)
  1225  076C  00F0               	movlw	0
  1226  076D  3000               	movwf	((k2@estado))+1
  1227  076E  00F1               	fcall	_k2
  1228  076F  120A  118A  270D  120A  118A  	line	36
  1229                           	
  1230                           l772:	
  1231  0774                     ;main.c: 36:                 t = 3000;
  1232                           	movlw	0B8h
  1233  0774  30B8               	movwf	(main@t)
  1234  0775  00F3               	movlw	0Bh
  1235  0776  300B               	movwf	((main@t))+1
  1236  0777  00F4               	line	37
  1237                           	
  1238                           l774:	
  1239  0778                     ;main.c: 37:                 estado = 3;
  1240                           	movlw	03h
  1241  0778  3003               	movwf	(main@estado)
  1242  0779  00F5               	movlw	0
  1243  077A  3000               	movwf	((main@estado))+1
  1244  077B  00F6               	line	38
  1245                           ;main.c: 38:                     break;
  1246                           	goto	l794
  1247  077C  2FDE               	line	40
  1248                           ;main.c: 40:             case 3:
  1249                           	
  1250                           l28:	
  1251  077D                     	line	41
  1252                           	
  1253                           l776:	
  1254  077D                     ;main.c: 41:                 delay(1);
  1255                           	movlw	01h
  1256  077D  3001               	movwf	(delay@t)
  1257  077E  00F0               	movlw	0
  1258  077F  3000               	movwf	((delay@t))+1
  1259  0780  00F1               	fcall	_delay
  1260  0781  120A  118A  2728  120A  118A  	line	42
  1261                           	
  1262                           l778:	
  1263  0786                     ;main.c: 42:                 --t;
  1264                           	movlw	0FFh
  1265  0786  30FF               	addwf	(main@t),f
  1266  0787  07F3               	skipnc
  1267  0788  1803               	incf	(main@t+1),f
  1268  0789  0AF4               	movlw	0FFh
  1269  078A  30FF               	addwf	(main@t+1),f
  1270  078B  07F4               	line	43
  1271                           	
  1272                           l780:	
  1273  078C                     ;main.c: 43:                 if(t <= 0)
  1274                           	movf	(main@t+1),w
  1275  078C  0874               	xorlw	80h
  1276  078D  3A80               	movwf	btemp+1
  1277  078E  00FF               	movlw	(0)^80h
  1278  078F  3080               	subwf	btemp+1,w
  1279  0790  027F               	skipz
  1280  0791  1D03               	goto	u75
  1281  0792  2F95               	movlw	01h
  1282  0793  3001               	subwf	(main@t),w
  1283  0794  0273               u75:
  1284  0795                     
  1285                           	skipnc
  1286  0795  1803               	goto	u71
  1287  0796  2F98               	goto	u70
  1288  0797  2F99               u71:
  1289  0798                     	goto	l794
  1290  0798  2FDE               u70:
  1291  0799                     	line	44
  1292                           	
  1293                           l782:	
  1294  0799                     ;main.c: 44:                     estado = 4;
  1295                           	movlw	04h
  1296  0799  3004               	movwf	(main@estado)
  1297  079A  00F5               	movlw	0
  1298  079B  3000               	movwf	((main@estado))+1
  1299  079C  00F6               	goto	l794
  1300  079D  2FDE               	
  1301                           l29:	
  1302  079E                     	line	45
  1303                           ;main.c: 45:                     break;
  1304                           	goto	l794
  1305  079E  2FDE               	line	47
  1306                           ;main.c: 47:             case 4:
  1307                           	
  1308                           l30:	
  1309  079F                     	line	48
  1310                           	
  1311                           l784:	
  1312  079F                     ;main.c: 48:                 k2(0);
  1313                           	movlw	0
  1314  079F  3000               	movwf	(k2@estado)
  1315  07A0  00F0               	movwf	(k2@estado+1)
  1316  07A1  00F1               	fcall	_k2
  1317  07A2  120A  118A  270D  120A  118A  	line	49
  1318                           ;main.c: 49:                 k3(1);
  1319                           	movlw	01h
  1320  07A7  3001               	movwf	(k3@estado)
  1321  07A8  00F0               	movlw	0
  1322  07A9  3000               	movwf	((k3@estado))+1
  1323  07AA  00F1               	fcall	_k3
  1324  07AB  120A  118A  2715  120A  118A  	line	50
  1325                           ;main.c: 50:                 if(s0() == 1)
  1326                           	fcall	_s0
  1327  07B0  120A  118A  26F9  120A  118A  	xorlw	01h
  1328  07B5  3A01               	skipz
  1329  07B6  1D03               	goto	u81
  1330  07B7  2FB9               	goto	u80
  1331  07B8  2FBA               u81:
  1332  07B9                     	goto	l794
  1333  07B9  2FDE               u80:
  1334  07BA                     	line	52
  1335                           	
  1336                           l786:	
  1337  07BA                     ;main.c: 51:                 {;main.c: 52:                     estado = 5;
  1338                           	movlw	05h
  1339  07BA  3005               	movwf	(main@estado)
  1340  07BB  00F5               	movlw	0
  1341  07BC  3000               	movwf	((main@estado))+1
  1342  07BD  00F6               	goto	l794
  1343  07BE  2FDE               	line	53
  1344                           ;main.c: 53:                 }
  1345                           	
  1346                           l31:	
  1347  07BF                     	line	54
  1348                           ;main.c: 54:                 break;
  1349                           	goto	l794
  1350  07BF  2FDE               	line	56
  1351                           ;main.c: 56:             case 5:
  1352                           	
  1353                           l32:	
  1354  07C0                     	line	57
  1355                           	
  1356                           l788:	
  1357  07C0                     ;main.c: 57:                 k1(0);
  1358                           	movlw	0
  1359  07C0  3000               	movwf	(k1@estado)
  1360  07C1  00F0               	movwf	(k1@estado+1)
  1361  07C2  00F1               	fcall	_k1
  1362  07C3  120A  118A  2705  120A  118A  	line	58
  1363                           ;main.c: 58:                 k2(0);
  1364                           	movlw	0
  1365  07C8  3000               	movwf	(k2@estado)
  1366  07C9  00F0               	movwf	(k2@estado+1)
  1367  07CA  00F1               	fcall	_k2
  1368  07CB  120A  118A  270D  120A  118A  	line	59
  1369                           ;main.c: 59:                 k3(0);
  1370                           	movlw	0
  1371  07D0  3000               	movwf	(k3@estado)
  1372  07D1  00F0               	movwf	(k3@estado+1)
  1373  07D2  00F1               	fcall	_k3
  1374  07D3  120A  118A  2715  120A  118A  	line	60
  1375                           	
  1376                           l790:	
  1377  07D8                     ;main.c: 60:                 estado = 1;
  1378                           	movlw	01h
  1379  07D8  3001               	movwf	(main@estado)
  1380  07D9  00F5               	movlw	0
  1381  07DA  3000               	movwf	((main@estado))+1
  1382  07DB  00F6               	line	61
  1383                           ;main.c: 61:                 break;
  1384                           	goto	l794
  1385  07DC  2FDE               	line	62
  1386                           	
  1387                           l792:	
  1388  07DD                     ;main.c: 62:         }
  1389                           	goto	l794
  1390  07DD  2FDE               	
  1391                           l22:	
  1392  07DE                     	
  1393                           l794:	
  1394  07DE                     	; Switch on 2 bytes has been partitioned into a top level switch of size 1, and 1 sub-s
                                 witches
  1395                           ; Switch size 1, requested type "space"
  1396                           ; Number of cases is 1, Range of values is 0 to 0
  1397                           ; switch strategies available:
  1398                           ; Name         Instructions Cycles
  1399                           ; simple_byte            4     3 (average)
  1400                           ; direct_byte           11     8 (fixed)
  1401                           ; jumptable            260     6 (fixed)
  1402                           ;	Chosen strategy is simple_byte
  1403                           
  1404                           	movf (main@estado+1),w
  1405  07DE  0876               	opt asmopt_push
  1406                           	opt asmopt_off
  1407                           	xorlw	0^0	; case 0
  1408  07DF  3A00               	skipnz
  1409  07E0  1903               	goto	l832
  1410  07E1  2FE3               	goto	l794
  1411  07E2  2FDE               	opt asmopt_pop
  1412                           	
  1413                           l832:	
  1414  07E3                     ; Switch size 1, requested type "space"
  1415                           ; Number of cases is 6, Range of values is 0 to 5
  1416                           ; switch strategies available:
  1417                           ; Name         Instructions Cycles
  1418                           ; simple_byte           19    10 (average)
  1419                           ; direct_byte           26     8 (fixed)
  1420                           ; jumptable            260     6 (fixed)
  1421                           ;	Chosen strategy is simple_byte
  1422                           
  1423                           	movf (main@estado),w
  1424  07E3  0875               	opt asmopt_push
  1425                           	opt asmopt_off
  1426                           	xorlw	0^0	; case 0
  1427  07E4  3A00               	skipnz
  1428  07E5  1903               	goto	l762
  1429  07E6  2F43               	xorlw	1^0	; case 1
  1430  07E7  3A01               	skipnz
  1431  07E8  1903               	goto	l764
  1432  07E9  2F48               	xorlw	2^1	; case 2
  1433  07EA  3A03               	skipnz
  1434  07EB  1903               	goto	l770
  1435  07EC  2F62               	xorlw	3^2	; case 3
  1436  07ED  3A01               	skipnz
  1437  07EE  1903               	goto	l776
  1438  07EF  2F7D               	xorlw	4^3	; case 4
  1439  07F0  3A07               	skipnz
  1440  07F1  1903               	goto	l784
  1441  07F2  2F9F               	xorlw	5^4	; case 5
  1442  07F3  3A01               	skipnz
  1443  07F4  1903               	goto	l788
  1444  07F5  2FC0               	goto	l794
  1445  07F6  2FDE               	opt asmopt_pop
  1446                           
  1447                           	
  1448                           l24:	
  1449  07F7                     	goto	l794
  1450  07F7  2FDE               	line	63
  1451                           ;main.c: 63:     }
  1452                           	
  1453                           l33:	
  1454  07F8                     	goto	l794
  1455  07F8  2FDE               	
  1456                           l34:	
  1457  07F9                     	line	64
  1458                           	
  1459                           l35:	
  1460  07F9                     	global	start
  1461                           	ljmp	start
  1462  07F9  120A  118A  2800   	opt stack 0
  1463                           GLOBAL	__end_of_main
  1464                           	__end_of_main:
  1465  07FC                     	signat	_main,89
  1466                           	global	_s1
  1467                           
  1468 ;; *************** function _s1 *****************
  1469 ;; Defined at:
  1470 ;;		line 21 in file "botoes.c"
  1471 ;; Parameters:    Size  Location     Type
  1472 ;;		None
  1473 ;; Auto vars:     Size  Location     Type
  1474 ;;		None
  1475 ;; Return value:  Size  Location     Type
  1476 ;;                  1    wreg      unsigned char 
  1477 ;; Registers used:
  1478 ;;		wreg, status,2, status,0
  1479 ;; Tracked objects:
  1480 ;;		On entry : 0/0
  1481 ;;		On exit  : 0/0
  1482 ;;		Unchanged: 0/0
  1483 ;; Data sizes:     COMMON   BANK0   BANK1   BANK3   BANK2
  1484 ;;      Params:         0       0       0       0       0
  1485 ;;      Locals:         0       0       0       0       0
  1486 ;;      Temps:          0       0       0       0       0
  1487 ;;      Totals:         0       0       0       0       0
  1488 ;;Total ram usage:        0 bytes
  1489 ;; Hardware stack levels used:    1
  1490 ;; This function calls:
  1491 ;;		Nothing
  1492 ;; This function is called by:
  1493 ;;		_main
  1494 ;; This function uses a non-reentrant model
  1495 ;;
  1496                           psect	text1,local,class=CODE,delta=2,merge=1,group=0
  1497                           	file	"botoes.c"
  1498                           	line	21
  1499                           global __ptext1
  1500                           __ptext1:	;psect for function _s1
  1501  06FF                     psect	text1
  1502                           	file	"botoes.c"
  1503                           	line	21
  1504                           	global	__size_of_s1
  1505                           	__size_of_s1	equ	__end_of_s1-_s1
  1506  0006                     	
  1507                           _s1:	
  1508  06FF                     ;incstack = 0
  1509                           	opt	stack 7
  1510                           ; Regs used in _s1: [wreg+status,2+status,0]
  1511                           	line	23
  1512                           	
  1513                           l652:	
  1514  06FF                     ;botoes.c: 23:     return(PORTDbits.RD1);
  1515                           	bcf	status, 5	;RP0=0, select bank0
  1516  06FF  1283               	bcf	status, 6	;RP1=0, select bank0
  1517  0700  1303               	rrf	(8),w	;volatile
  1518  0701  0C08               	andlw	(1<<1)-1
  1519  0702  3901               	goto	l64
  1520  0703  2F04               	
  1521                           l654:	
  1522  0704                     	line	24
  1523                           	
  1524                           l64:	
  1525  0704                     	return
  1526  0704  0008               	opt stack 0
  1527                           GLOBAL	__end_of_s1
  1528                           	__end_of_s1:
  1529  0705                     	signat	_s1,89
  1530                           	global	_s0
  1531                           
  1532 ;; *************** function _s0 *****************
  1533 ;; Defined at:
  1534 ;;		line 26 in file "botoes.c"
  1535 ;; Parameters:    Size  Location     Type
  1536 ;;		None
  1537 ;; Auto vars:     Size  Location     Type
  1538 ;;		None
  1539 ;; Return value:  Size  Location     Type
  1540 ;;                  1    wreg      unsigned char 
  1541 ;; Registers used:
  1542 ;;		wreg, status,2, status,0
  1543 ;; Tracked objects:
  1544 ;;		On entry : 0/0
  1545 ;;		On exit  : 0/0
  1546 ;;		Unchanged: 0/0
  1547 ;; Data sizes:     COMMON   BANK0   BANK1   BANK3   BANK2
  1548 ;;      Params:         0       0       0       0       0
  1549 ;;      Locals:         0       0       0       0       0
  1550 ;;      Temps:          0       0       0       0       0
  1551 ;;      Totals:         0       0       0       0       0
  1552 ;;Total ram usage:        0 bytes
  1553 ;; Hardware stack levels used:    1
  1554 ;; This function calls:
  1555 ;;		Nothing
  1556 ;; This function is called by:
  1557 ;;		_main
  1558 ;; This function uses a non-reentrant model
  1559 ;;
  1560                           psect	text2,local,class=CODE,delta=2,merge=1,group=0
  1561                           	line	26
  1562                           global __ptext2
  1563                           __ptext2:	;psect for function _s0
  1564  06F9                     psect	text2
  1565                           	file	"botoes.c"
  1566                           	line	26
  1567                           	global	__size_of_s0
  1568                           	__size_of_s0	equ	__end_of_s0-_s0
  1569  0006                     	
  1570                           _s0:	
  1571  06F9                     ;incstack = 0
  1572                           	opt	stack 7
  1573                           ; Regs used in _s0: [wreg+status,2+status,0]
  1574                           	line	28
  1575                           	
  1576                           l668:	
  1577  06F9                     ;botoes.c: 28:     return(PORTDbits.RD0);
  1578                           	bcf	status, 5	;RP0=0, select bank0
  1579  06F9  1283               	bcf	status, 6	;RP1=0, select bank0
  1580  06FA  1303               	movf	(8),w	;volatile
  1581  06FB  0808               	andlw	(1<<1)-1
  1582  06FC  3901               	goto	l67
  1583  06FD  2EFE               	
  1584                           l670:	
  1585  06FE                     	line	29
  1586                           	
  1587                           l67:	
  1588  06FE                     	return
  1589  06FE  0008               	opt stack 0
  1590                           GLOBAL	__end_of_s0
  1591                           	__end_of_s0:
  1592  06FF                     	signat	_s0,89
  1593                           	global	_k3
  1594                           
  1595 ;; *************** function _k3 *****************
  1596 ;; Defined at:
  1597 ;;		line 38 in file "contatores.c"
  1598 ;; Parameters:    Size  Location     Type
  1599 ;;  estado          2    0[COMMON] int 
  1600 ;; Auto vars:     Size  Location     Type
  1601 ;;		None
  1602 ;; Return value:  Size  Location     Type
  1603 ;;                  1    wreg      void 
  1604 ;; Registers used:
  1605 ;;		wreg, status,0
  1606 ;; Tracked objects:
  1607 ;;		On entry : 0/0
  1608 ;;		On exit  : 0/0
  1609 ;;		Unchanged: 0/0
  1610 ;; Data sizes:     COMMON   BANK0   BANK1   BANK3   BANK2
  1611 ;;      Params:         2       0       0       0       0
  1612 ;;      Locals:         0       0       0       0       0
  1613 ;;      Temps:          0       0       0       0       0
  1614 ;;      Totals:         2       0       0       0       0
  1615 ;;Total ram usage:        2 bytes
  1616 ;; Hardware stack levels used:    1
  1617 ;; This function calls:
  1618 ;;		Nothing
  1619 ;; This function is called by:
  1620 ;;		_main
  1621 ;; This function uses a non-reentrant model
  1622 ;;
  1623                           psect	text3,local,class=CODE,delta=2,merge=1,group=0
  1624                           	file	"contatores.c"
  1625                           	line	38
  1626                           global __ptext3
  1627                           __ptext3:	;psect for function _k3
  1628  0715                     psect	text3
  1629                           	file	"contatores.c"
  1630                           	line	38
  1631                           	global	__size_of_k3
  1632                           	__size_of_k3	equ	__end_of_k3-_k3
  1633  0008                     	
  1634                           _k3:	
  1635  0715                     ;incstack = 0
  1636                           	opt	stack 7
  1637                           ; Regs used in _k3: [wreg+status,0]
  1638                           	line	40
  1639                           	
  1640                           l758:	
  1641  0715                     ;contatores.c: 38: void k3(int estado);contatores.c: 39: {;contatores.c: 40:     PORTDbi
                                 ts.RD5 = estado;
  1642                           	rrf	(k3@estado),w
  1643  0715  0C70               	bcf	status, 5	;RP0=0, select bank0
  1644  0716  1283               	bcf	status, 6	;RP1=0, select bank0
  1645  0717  1303               	skipc
  1646  0718  1C03               	bcf	(8),5	;volatile
  1647  0719  1288               	skipnc
  1648  071A  1803               	bsf	(8),5	;volatile
  1649  071B  1688               	line	41
  1650                           	
  1651                           l51:	
  1652  071C                     	return
  1653  071C  0008               	opt stack 0
  1654                           GLOBAL	__end_of_k3
  1655                           	__end_of_k3:
  1656  071D                     	signat	_k3,4217
  1657                           	global	_k2
  1658                           
  1659 ;; *************** function _k2 *****************
  1660 ;; Defined at:
  1661 ;;		line 33 in file "contatores.c"
  1662 ;; Parameters:    Size  Location     Type
  1663 ;;  estado          2    0[COMMON] int 
  1664 ;; Auto vars:     Size  Location     Type
  1665 ;;		None
  1666 ;; Return value:  Size  Location     Type
  1667 ;;                  1    wreg      void 
  1668 ;; Registers used:
  1669 ;;		wreg, status,0
  1670 ;; Tracked objects:
  1671 ;;		On entry : 0/0
  1672 ;;		On exit  : 0/0
  1673 ;;		Unchanged: 0/0
  1674 ;; Data sizes:     COMMON   BANK0   BANK1   BANK3   BANK2
  1675 ;;      Params:         2       0       0       0       0
  1676 ;;      Locals:         0       0       0       0       0
  1677 ;;      Temps:          0       0       0       0       0
  1678 ;;      Totals:         2       0       0       0       0
  1679 ;;Total ram usage:        2 bytes
  1680 ;; Hardware stack levels used:    1
  1681 ;; This function calls:
  1682 ;;		Nothing
  1683 ;; This function is called by:
  1684 ;;		_main
  1685 ;; This function uses a non-reentrant model
  1686 ;;
  1687                           psect	text4,local,class=CODE,delta=2,merge=1,group=0
  1688                           	line	33
  1689                           global __ptext4
  1690                           __ptext4:	;psect for function _k2
  1691  070D                     psect	text4
  1692                           	file	"contatores.c"
  1693                           	line	33
  1694                           	global	__size_of_k2
  1695                           	__size_of_k2	equ	__end_of_k2-_k2
  1696  0008                     	
  1697                           _k2:	
  1698  070D                     ;incstack = 0
  1699                           	opt	stack 7
  1700                           ; Regs used in _k2: [wreg+status,0]
  1701                           	line	35
  1702                           	
  1703                           l750:	
  1704  070D                     ;contatores.c: 33: void k2(int estado);contatores.c: 34: {;contatores.c: 35:     PORTDbi
                                 ts.RD6 = estado;
  1705                           	rrf	(k2@estado),w
  1706  070D  0C70               	bcf	status, 5	;RP0=0, select bank0
  1707  070E  1283               	bcf	status, 6	;RP1=0, select bank0
  1708  070F  1303               	skipc
  1709  0710  1C03               	bcf	(8),6	;volatile
  1710  0711  1308               	skipnc
  1711  0712  1803               	bsf	(8),6	;volatile
  1712  0713  1708               	line	36
  1713                           	
  1714                           l48:	
  1715  0714                     	return
  1716  0714  0008               	opt stack 0
  1717                           GLOBAL	__end_of_k2
  1718                           	__end_of_k2:
  1719  0715                     	signat	_k2,4217
  1720                           	global	_k1
  1721                           
  1722 ;; *************** function _k1 *****************
  1723 ;; Defined at:
  1724 ;;		line 28 in file "contatores.c"
  1725 ;; Parameters:    Size  Location     Type
  1726 ;;  estado          2    0[COMMON] int 
  1727 ;; Auto vars:     Size  Location     Type
  1728 ;;		None
  1729 ;; Return value:  Size  Location     Type
  1730 ;;                  1    wreg      void 
  1731 ;; Registers used:
  1732 ;;		wreg, status,0
  1733 ;; Tracked objects:
  1734 ;;		On entry : 0/0
  1735 ;;		On exit  : 0/0
  1736 ;;		Unchanged: 0/0
  1737 ;; Data sizes:     COMMON   BANK0   BANK1   BANK3   BANK2
  1738 ;;      Params:         2       0       0       0       0
  1739 ;;      Locals:         0       0       0       0       0
  1740 ;;      Temps:          0       0       0       0       0
  1741 ;;      Totals:         2       0       0       0       0
  1742 ;;Total ram usage:        2 bytes
  1743 ;; Hardware stack levels used:    1
  1744 ;; This function calls:
  1745 ;;		Nothing
  1746 ;; This function is called by:
  1747 ;;		_main
  1748 ;; This function uses a non-reentrant model
  1749 ;;
  1750                           psect	text5,local,class=CODE,delta=2,merge=1,group=0
  1751                           	line	28
  1752                           global __ptext5
  1753                           __ptext5:	;psect for function _k1
  1754  0705                     psect	text5
  1755                           	file	"contatores.c"
  1756                           	line	28
  1757                           	global	__size_of_k1
  1758                           	__size_of_k1	equ	__end_of_k1-_k1
  1759  0008                     	
  1760                           _k1:	
  1761  0705                     ;incstack = 0
  1762                           	opt	stack 7
  1763                           ; Regs used in _k1: [wreg+status,0]
  1764                           	line	30
  1765                           	
  1766                           l748:	
  1767  0705                     ;contatores.c: 28: void k1(int estado);contatores.c: 29: {;contatores.c: 30:     PORTDbi
                                 ts.RD7 = estado;
  1768                           	rrf	(k1@estado),w
  1769  0705  0C70               	bcf	status, 5	;RP0=0, select bank0
  1770  0706  1283               	bcf	status, 6	;RP1=0, select bank0
  1771  0707  1303               	skipc
  1772  0708  1C03               	bcf	(8),7	;volatile
  1773  0709  1388               	skipnc
  1774  070A  1803               	bsf	(8),7	;volatile
  1775  070B  1788               	line	31
  1776                           	
  1777                           l45:	
  1778  070C                     	return
  1779  070C  0008               	opt stack 0
  1780                           GLOBAL	__end_of_k1
  1781                           	__end_of_k1:
  1782  070D                     	signat	_k1,4217
  1783                           	global	_delay
  1784                           
  1785 ;; *************** function _delay *****************
  1786 ;; Defined at:
  1787 ;;		line 11 in file "delay.c"
  1788 ;; Parameters:    Size  Location     Type
  1789 ;;  t               2    0[COMMON] unsigned int 
  1790 ;; Auto vars:     Size  Location     Type
  1791 ;;		None
  1792 ;; Return value:  Size  Location     Type
  1793 ;;                  1    wreg      void 
  1794 ;; Registers used:
  1795 ;;		wreg, status,2, status,0
  1796 ;; Tracked objects:
  1797 ;;		On entry : 0/0
  1798 ;;		On exit  : 0/0
  1799 ;;		Unchanged: 0/0
  1800 ;; Data sizes:     COMMON   BANK0   BANK1   BANK3   BANK2
  1801 ;;      Params:         2       0       0       0       0
  1802 ;;      Locals:         0       0       0       0       0
  1803 ;;      Temps:          1       0       0       0       0
  1804 ;;      Totals:         3       0       0       0       0
  1805 ;;Total ram usage:        3 bytes
  1806 ;; Hardware stack levels used:    1
  1807 ;; This function calls:
  1808 ;;		Nothing
  1809 ;; This function is called by:
  1810 ;;		_main
  1811 ;; This function uses a non-reentrant model
  1812 ;;
  1813                           psect	text6,local,class=CODE,delta=2,merge=1,group=0
  1814                           	file	"delay.c"
  1815                           	line	11
  1816                           global __ptext6
  1817                           __ptext6:	;psect for function _delay
  1818  0728                     psect	text6
  1819                           	file	"delay.c"
  1820                           	line	11
  1821                           	global	__size_of_delay
  1822                           	__size_of_delay	equ	__end_of_delay-_delay
  1823  0017                     	
  1824                           _delay:	
  1825  0728                     ;incstack = 0
  1826                           	opt	stack 7
  1827                           ; Regs used in _delay: [wreg+status,2+status,0]
  1828                           	line	13
  1829                           	
  1830                           l752:	
  1831  0728                     ;delay.c: 11: void delay (unsigned int t);delay.c: 12: {;delay.c: 13:     while(t)
  1832                           	goto	l756
  1833  0728  2F37               	
  1834                           l73:	
  1835  0729                     	line	15
  1836                           	
  1837                           l754:	
  1838  0729                     ;delay.c: 14:     {;delay.c: 15:         --t;
  1839                           	movlw	01h
  1840  0729  3001               	subwf	(delay@t),f
  1841  072A  02F0               	movlw	0
  1842  072B  3000               	skipc
  1843  072C  1C03               	decf	(delay@t+1),f
  1844  072D  03F1               	subwf	(delay@t+1),f
  1845  072E  02F1               	line	16
  1846                           ;delay.c: 16:         _delay((unsigned long)((1)*(4000000/4000.0)));
  1847                           	opt asmopt_push
  1848                           opt asmopt_off
  1849                           	movlw	199
  1850  072F  30C7               movwf	((??_delay+0)+0),f
  1851  0730  00F2               	u97:
  1852  0731                     	nop2
  1853  0731  2F32               decfsz	(??_delay+0)+0,f
  1854  0732  0BF2               	goto	u97
  1855  0733  2F31               	nop2
  1856  0734  2F35               	nop2
  1857  0735  2F36               opt asmopt_pop
  1858                           
  1859                           	goto	l756
  1860  0736  2F37               	line	17
  1861                           ;delay.c: 17:     }
  1862                           	
  1863                           l72:	
  1864  0737                     	line	13
  1865                           	
  1866                           l756:	
  1867  0737                     ;delay.c: 13:     while(t)
  1868                           	movf	((delay@t)),w
  1869  0737  0870               iorwf	((delay@t+1)),w
  1870  0738  0471               	btfss	status,2
  1871  0739  1D03               	goto	u51
  1872  073A  2F3C               	goto	u50
  1873  073B  2F3D               u51:
  1874  073C                     	goto	l754
  1875  073C  2F29               u50:
  1876  073D                     	goto	l75
  1877  073D  2F3E               	
  1878                           l74:	
  1879  073E                     	line	18
  1880                           	
  1881                           l75:	
  1882  073E                     	return
  1883  073E  0008               	opt stack 0
  1884                           GLOBAL	__end_of_delay
  1885                           	__end_of_delay:
  1886  073F                     	signat	_delay,4217
  1887                           	global	_contatores_init
  1888                           
  1889 ;; *************** function _contatores_init *****************
  1890 ;; Defined at:
  1891 ;;		line 17 in file "contatores.c"
  1892 ;; Parameters:    Size  Location     Type
  1893 ;;		None
  1894 ;; Auto vars:     Size  Location     Type
  1895 ;;		None
  1896 ;; Return value:  Size  Location     Type
  1897 ;;                  1    wreg      void 
  1898 ;; Registers used:
  1899 ;;		None
  1900 ;; Tracked objects:
  1901 ;;		On entry : 0/0
  1902 ;;		On exit  : 0/0
  1903 ;;		Unchanged: 0/0
  1904 ;; Data sizes:     COMMON   BANK0   BANK1   BANK3   BANK2
  1905 ;;      Params:         0       0       0       0       0
  1906 ;;      Locals:         0       0       0       0       0
  1907 ;;      Temps:          0       0       0       0       0
  1908 ;;      Totals:         0       0       0       0       0
  1909 ;;Total ram usage:        0 bytes
  1910 ;; Hardware stack levels used:    1
  1911 ;; This function calls:
  1912 ;;		Nothing
  1913 ;; This function is called by:
  1914 ;;		_main
  1915 ;; This function uses a non-reentrant model
  1916 ;;
  1917                           psect	text7,local,class=CODE,delta=2,merge=1,group=0
  1918                           	file	"contatores.c"
  1919                           	line	17
  1920                           global __ptext7
  1921                           __ptext7:	;psect for function _contatores_init
  1922  071D                     psect	text7
  1923                           	file	"contatores.c"
  1924                           	line	17
  1925                           	global	__size_of_contatores_init
  1926                           	__size_of_contatores_init	equ	__end_of_contatores_init-_contatores_init
  1927  000B                     	
  1928                           _contatores_init:	
  1929  071D                     ;incstack = 0
  1930                           	opt	stack 7
  1931                           ; Regs used in _contatores_init: []
  1932                           	line	19
  1933                           	
  1934                           l648:	
  1935  071D                     ;contatores.c: 19:     TRISDbits.TRISD5 = 0;
  1936                           	bsf	status, 5	;RP0=1, select bank1
  1937  071D  1683               	bcf	status, 6	;RP1=0, select bank1
  1938  071E  1303               	bcf	(136)^080h,5	;volatile
  1939  071F  1288               	line	20
  1940                           ;contatores.c: 20:     TRISDbits.TRISD6 = 0;
  1941                           	bcf	(136)^080h,6	;volatile
  1942  0720  1308               	line	21
  1943                           ;contatores.c: 21:     TRISDbits.TRISD7 = 0;
  1944                           	bcf	(136)^080h,7	;volatile
  1945  0721  1388               	line	23
  1946                           ;contatores.c: 23:     PORTDbits.RD5 = 0;
  1947                           	bcf	status, 5	;RP0=0, select bank0
  1948  0722  1283               	bcf	status, 6	;RP1=0, select bank0
  1949  0723  1303               	bcf	(8),5	;volatile
  1950  0724  1288               	line	24
  1951                           ;contatores.c: 24:     PORTDbits.RD6 = 0;
  1952                           	bcf	(8),6	;volatile
  1953  0725  1308               	line	25
  1954                           ;contatores.c: 25:     PORTDbits.RD7 = 0;
  1955                           	bcf	(8),7	;volatile
  1956  0726  1388               	line	26
  1957                           	
  1958                           l42:	
  1959  0727                     	return
  1960  0727  0008               	opt stack 0
  1961                           GLOBAL	__end_of_contatores_init
  1962                           	__end_of_contatores_init:
  1963  0728                     	signat	_contatores_init,89
  1964                           	global	_botoes_init
  1965                           
  1966 ;; *************** function _botoes_init *****************
  1967 ;; Defined at:
  1968 ;;		line 15 in file "botoes.c"
  1969 ;; Parameters:    Size  Location     Type
  1970 ;;		None
  1971 ;; Auto vars:     Size  Location     Type
  1972 ;;		None
  1973 ;; Return value:  Size  Location     Type
  1974 ;;                  1    wreg      void 
  1975 ;; Registers used:
  1976 ;;		None
  1977 ;; Tracked objects:
  1978 ;;		On entry : 0/0
  1979 ;;		On exit  : 0/0
  1980 ;;		Unchanged: 0/0
  1981 ;; Data sizes:     COMMON   BANK0   BANK1   BANK3   BANK2
  1982 ;;      Params:         0       0       0       0       0
  1983 ;;      Locals:         0       0       0       0       0
  1984 ;;      Temps:          0       0       0       0       0
  1985 ;;      Totals:         0       0       0       0       0
  1986 ;;Total ram usage:        0 bytes
  1987 ;; Hardware stack levels used:    1
  1988 ;; This function calls:
  1989 ;;		Nothing
  1990 ;; This function is called by:
  1991 ;;		_main
  1992 ;; This function uses a non-reentrant model
  1993 ;;
  1994                           psect	text8,local,class=CODE,delta=2,merge=1,group=0
  1995                           	file	"botoes.c"
  1996                           	line	15
  1997                           global __ptext8
  1998                           __ptext8:	;psect for function _botoes_init
  1999  06F4                     psect	text8
  2000                           	file	"botoes.c"
  2001                           	line	15
  2002                           	global	__size_of_botoes_init
  2003                           	__size_of_botoes_init	equ	__end_of_botoes_init-_botoes_init
  2004  0005                     	
  2005                           _botoes_init:	
  2006  06F4                     ;incstack = 0
  2007                           	opt	stack 7
  2008                           ; Regs used in _botoes_init: []
  2009                           	line	17
  2010                           	
  2011                           l650:	
  2012  06F4                     ;botoes.c: 17:     TRISDbits.TRISD0 = 1;
  2013                           	bsf	status, 5	;RP0=1, select bank1
  2014  06F4  1683               	bcf	status, 6	;RP1=0, select bank1
  2015  06F5  1303               	bsf	(136)^080h,0	;volatile
  2016  06F6  1408               	line	18
  2017                           ;botoes.c: 18:     TRISDbits.TRISD1 = 1;
  2018                           	bsf	(136)^080h,1	;volatile
  2019  06F7  1488               	line	19
  2020                           	
  2021                           l61:	
  2022  06F8                     	return
  2023  06F8  0008               	opt stack 0
  2024                           GLOBAL	__end_of_botoes_init
  2025                           	__end_of_botoes_init:
  2026  06F9                     	signat	_botoes_init,89
  2027                           global	___latbits
  2028                           ___latbits	equ	2
  2029  0002                     	global	btemp
  2030                           	btemp set 07Eh
  2031  007E                     
  2032                           	DABS	1,126,2	;btemp
  2033                           	global	wtemp0
  2034                           	wtemp0 set btemp+0
  2035  007E                     	end


Data Sizes:
    Strings     0
    Constant    0
    Data        0
    BSS         0
    Persistent  0
    Stack       0

Auto Spaces:
    Space          Size  Autos    Used
    COMMON           14      7       7
    BANK0            80      0       0
    BANK1            80      0       0
    BANK3            96      0       0
    BANK2            96      0       0

Pointer List with Targets:

    None.

Critical Paths under _main in COMMON

    _main->_delay

Critical Paths under _main in BANK0

    None.

Critical Paths under _main in BANK1

    None.

Critical Paths under _main in BANK3

    None.

Critical Paths under _main in BANK2

    None.

Call Graph Tables:

 ---------------------------------------------------------------------------------
 (Depth) Function   	        Calls       Base Space   Used Autos Params    Refs
 ---------------------------------------------------------------------------------
 (0) _main                                                 4     4      0     750
                                              3 COMMON     4     4      0
                        _botoes_init
                    _contatores_init
                              _delay
                                 _k1
                                 _k2
                                 _k3
                                 _s0
                                 _s1
 ---------------------------------------------------------------------------------
 (1) _s1                                                   0     0      0       0
 ---------------------------------------------------------------------------------
 (1) _s0                                                   0     0      0       0
 ---------------------------------------------------------------------------------
 (1) _k3                                                   2     0      2     174
                                              0 COMMON     2     0      2
 ---------------------------------------------------------------------------------
 (1) _k2                                                   2     0      2     250
                                              0 COMMON     2     0      2
 ---------------------------------------------------------------------------------
 (1) _k1                                                   2     0      2     174
                                              0 COMMON     2     0      2
 ---------------------------------------------------------------------------------
 (1) _delay                                                3     1      2      99
                                              0 COMMON     3     1      2
 ---------------------------------------------------------------------------------
 (1) _contatores_init                                      0     0      0       0
 ---------------------------------------------------------------------------------
 (1) _botoes_init                                          0     0      0       0
 ---------------------------------------------------------------------------------
 Estimated maximum stack depth 1
 ---------------------------------------------------------------------------------

 Call Graph Graphs:

 _main (ROOT)
   _botoes_init
   _contatores_init
   _delay
   _k1
   _k2
   _k3
   _s0
   _s1

 Address spaces:
Name               Size   Autos  Total    Cost      Usage
BITCOMMON            E      0       0       0        0.0%
EEDATA             100      0       0       0        0.0%
NULL                 0      0       0       0        0.0%
CODE                 0      0       0       0        0.0%
COMMON               E      7       7       1       50.0%
BITSFR0              0      0       0       1        0.0%
SFR0                 0      0       0       1        0.0%
BITSFR1              0      0       0       2        0.0%
SFR1                 0      0       0       2        0.0%
STACK                0      0       0       2        0.0%
ABS                  0      0       0       3        0.0%
BITBANK0            50      0       0       4        0.0%
BITSFR3              0      0       0       4        0.0%
SFR3                 0      0       0       4        0.0%
BANK0               50      0       0       5        0.0%
BITSFR2              0      0       0       5        0.0%
SFR2                 0      0       0       5        0.0%
BITBANK1            50      0       0       6        0.0%
BANK1               50      0       0       7        0.0%
BITBANK3            60      0       0       8        0.0%
BANK3               60      0       0       9        0.0%
BITBANK2            60      0       0      10        0.0%
BANK2               60      0       0      11        0.0%
DATA                 0      0       0      12        0.0%


Microchip Technology PIC Macro Assembler V2.00 build -1524193055 
Symbol Table                                                                                   Thu Feb 18 16:12:38 2021

             __CFG_CP$OFF 0000                        l21 0742                        l22 07DE  
                      l30 079F                        l31 07BF                        l23 0743  
                      l24 07F7                        l32 07C0                        l33 07F8  
                      l25 0748                        l42 0727                        l34 07F9  
                      l26 0761                        l51 071C                        l35 07F9  
                      l27 0762                        l28 077D                        l61 06F8  
                      l45 070C                        l29 079E                        l72 0737  
                      l48 0714                        l64 0704                        l73 0729  
                      l74 073E                        l75 073E                        l67 06FE  
                      u50 073D                        u51 073C                        u60 075C  
                      u61 075B                        u70 0799                        u71 0798  
                      u80 07BA                        u81 07B9                        u75 0795  
                      u97 0731                        _k1 0705                        _k2 070D  
                      _k3 0715                        _s0 06F9                        _s1 06FF  
                     ?_k1 0070                       ?_k2 0070                       ?_k3 0070  
                     ?_s0 0070                       ?_s1 0070                       l650 06F4  
                     l652 06FF                       l750 070D                       l670 06FE  
                     l654 0704                       l648 071D                       l752 0728  
                     l832 07E3                       l760 073F                       l754 0729  
                     l770 0762                       l762 0743                       l756 0737  
                     l748 0705                       l668 06F9                       l780 078C  
                     l772 0774                       l764 0748                       l758 0715  
                     l790 07D8                       l782 0799                       l774 0778  
                     l766 0752                       l792 07DD                       l784 079F  
                     l776 077D                       l768 075C                       l786 07BA  
                     l778 0786                       l794 07DE                       l788 07C0  
            __CFG_CPD$OFF 0000              ?_botoes_init 0070                      ??_k1 0072  
                    ??_k2 0072                      ??_k3 0072                      ??_s0 0070  
                    ??_s1 0070              __CFG_LVP$OFF 0000              __CFG_WRT$OFF 0000  
                    _main 073F                      btemp 007E                      start 0000  
           __CFG_IESO$OFF 0000                     ?_main 0070             __CFG_WDTE$OFF 0000  
          __CFG_FCMEN$OFF 0000                     _delay 0728                     main@t 0073  
          __CFG_BOREN$OFF 0000                     status 0003                     wtemp0 007E  
          __CFG_MCLRE$OFF 0000           __initialization 07FC              __end_of_main 07FC  
                  ??_main 0073                    ?_delay 0070            __CFG_PWRTE$OFF 0000  
                  delay@t 0070           _contatores_init 071D      __size_of_botoes_init 0005  
 __end_of__initialization 07FC            __pcstackCOMMON 0070             __end_of_delay 073F  
              __end_of_k1 070D                __end_of_k2 0715                __end_of_k3 071D  
              __end_of_s0 06FF                __end_of_s1 0705                   ??_delay 0072  
              __pmaintext 073F   __end_of_contatores_init 0728                   __ptext1 06FF  
                 __ptext2 06F9                   __ptext3 0715                   __ptext4 070D  
                 __ptext5 0705                   __ptext6 0728                   __ptext7 071D  
                 __ptext8 06F4      end_of_initialization 07FC                 _PORTDbits 0008  
        ?_contatores_init 0070                 _TRISDbits 0088                main@estado 0075  
           ??_botoes_init 0070       start_initialization 07FC  __CFG_FOSC$INTRC_NOCLKOUT 0000  
               ___latbits 0002       __end_of_botoes_init 06F9            __size_of_delay 0017  
             __size_of_k1 0008               __size_of_k2 0008               __size_of_k3 0008  
             __size_of_s0 0006               __size_of_s1 0006                  k1@estado 0070  
                k2@estado 0070                  k3@estado 0070               _botoes_init 06F4  
       __CFG_BOR4V$BOR40V 0000  __size_of_contatores_init 000B             __size_of_main 00BD  
       ??_contatores_init 0070  
